

Microchip Technology PIC LITE Macro Assembler V1.12 build 49521 
                                                                                               Wed Jul 31 03:22:21 2013

HI-TECH Software Omniscient Code Generator (Lite mode) build 49521
     1  0000                     opt subtitle "HI-TECH Software Omniscient Code Generator (Lite mode) build 49521"
     2                           opt subtitle "HI-TECH Software Omniscient Code Generator (Lite mode) build 49521"
     3                           
     4                           opt pagewidth 120
     5                           
     6                           	opt lm
     7                           
     8                           	processor	16F1937
     9                           clrc	macro
    10  0000                     	endm
    11                           opt subtitle "HI-TECH Software Omniscient Code Generator (Lite mode) build 49521"
    12                           
    13  0000                     	endm
    14                           opt subtitle "HI-TECH Software Omniscient Code Generator (Lite mode) build 49521"
    15                           
    16  0000                     	endm
    17                           opt subtitle "HI-TECH Software Omniscient Code Generator (Lite mode) build 49521"
    18                           
    19  0000                     	endm
    20                           opt subtitle "HI-TECH Software Omniscient Code Generator (Lite mode) build 49521"
    21                           
    22  0000                     	endm
    23                           opt subtitle "HI-TECH Software Omniscient Code Generator (Lite mode) build 49521"
    24                           
    25  0000                     	endm
    26                           opt subtitle "HI-TECH Software Omniscient Code Generator (Lite mode) build 49521"
    27                           
    28  0000                     	endm
    29                           opt subtitle "HI-TECH Software Omniscient Code Generator (Lite mode) build 49521"
    30                           
    31  0000                     	endm
    32  0000                     indf	equ	0
    33  0000                     indf0	equ	0
    34  0001                     indf1	equ	1
    35  0002                     pc	equ	2
    36  0002                     pcl	equ	2
    37  0003                     status	equ	3
    38  0004                     fsr0l	equ	4
    39  0005                     fsr0h	equ	5
    40  0006                     fsr1l	equ	6
    41  0007                     fsr1h	equ	7
    42  0008                     bsr	equ	8
    43  0009                     wreg	equ	9
    44  000B                     intcon	equ	11
    45  0001                     c	equ	1
    46  0000                     z	equ	0
    47  000A                     pclath	equ	10
    48                           opt subtitle "HI-TECH Software Omniscient Code Generator (Lite mode) build 49521"
    49  0000                     INDF0 equ 00h ;# 
    50                           opt subtitle "HI-TECH Software Omniscient Code Generator (Lite mode) build 49521"
    51  0001                     INDF1 equ 01h ;# 
    52                           opt subtitle "HI-TECH Software Omniscient Code Generator (Lite mode) build 49521"
    53  0002                     PCL equ 02h ;# 
    54                           opt subtitle "HI-TECH Software Omniscient Code Generator (Lite mode) build 49521"
    55  0003                     STATUS equ 03h ;# 
    56                           opt subtitle "HI-TECH Software Omniscient Code Generator (Lite mode) build 49521"
    57  0004                     FSR0L equ 04h ;# 
    58                           opt subtitle "HI-TECH Software Omniscient Code Generator (Lite mode) build 49521"
    59  0005                     FSR0H equ 05h ;# 
    60                           opt subtitle "HI-TECH Software Omniscient Code Generator (Lite mode) build 49521"
    61  0006                     FSR1L equ 06h ;# 
    62                           opt subtitle "HI-TECH Software Omniscient Code Generator (Lite mode) build 49521"
    63  0007                     FSR1H equ 07h ;# 
    64                           opt subtitle "HI-TECH Software Omniscient Code Generator (Lite mode) build 49521"
    65  0008                     BSR equ 08h ;# 
    66                           opt subtitle "HI-TECH Software Omniscient Code Generator (Lite mode) build 49521"
    67  0009                     WREG equ 09h ;# 
    68                           opt subtitle "HI-TECH Software Omniscient Code Generator (Lite mode) build 49521"
    69  000A                     PCLATH equ 0Ah ;# 
    70                           opt subtitle "HI-TECH Software Omniscient Code Generator (Lite mode) build 49521"
    71  000B                     INTCON equ 0Bh ;# 
    72                           opt subtitle "HI-TECH Software Omniscient Code Generator (Lite mode) build 49521"
    73  000C                     PORTA equ 0Ch ;# 
    74                           opt subtitle "HI-TECH Software Omniscient Code Generator (Lite mode) build 49521"
    75  000D                     PORTB equ 0Dh ;# 
    76                           opt subtitle "HI-TECH Software Omniscient Code Generator (Lite mode) build 49521"
    77  000E                     PORTC equ 0Eh ;# 
    78                           opt subtitle "HI-TECH Software Omniscient Code Generator (Lite mode) build 49521"
    79  000F                     PORTD equ 0Fh ;# 
    80                           opt subtitle "HI-TECH Software Omniscient Code Generator (Lite mode) build 49521"
    81  0010                     PORTE equ 010h ;# 
    82                           opt subtitle "HI-TECH Software Omniscient Code Generator (Lite mode) build 49521"
    83  0011                     PIR1 equ 011h ;# 
    84                           opt subtitle "HI-TECH Software Omniscient Code Generator (Lite mode) build 49521"
    85  0012                     PIR2 equ 012h ;# 
    86                           opt subtitle "HI-TECH Software Omniscient Code Generator (Lite mode) build 49521"
    87  0013                     PIR3 equ 013h ;# 
    88                           opt subtitle "HI-TECH Software Omniscient Code Generator (Lite mode) build 49521"
    89  0015                     TMR0 equ 015h ;# 
    90                           opt subtitle "HI-TECH Software Omniscient Code Generator (Lite mode) build 49521"
    91  0016                     TMR1 equ 016h ;# 
    92                           opt subtitle "HI-TECH Software Omniscient Code Generator (Lite mode) build 49521"
    93  0016                     TMR1L equ 016h ;# 
    94                           opt subtitle "HI-TECH Software Omniscient Code Generator (Lite mode) build 49521"
    95  0017                     TMR1H equ 017h ;# 
    96                           opt subtitle "HI-TECH Software Omniscient Code Generator (Lite mode) build 49521"
    97  0018                     T1CON equ 018h ;# 
    98                           opt subtitle "HI-TECH Software Omniscient Code Generator (Lite mode) build 49521"
    99  0019                     T1GCON equ 019h ;# 
   100                           opt subtitle "HI-TECH Software Omniscient Code Generator (Lite mode) build 49521"
   101  001A                     TMR2 equ 01Ah ;# 
   102                           opt subtitle "HI-TECH Software Omniscient Code Generator (Lite mode) build 49521"
   103  001B                     PR2 equ 01Bh ;# 
   104                           opt subtitle "HI-TECH Software Omniscient Code Generator (Lite mode) build 49521"
   105  001C                     T2CON equ 01Ch ;# 
   106                           opt subtitle "HI-TECH Software Omniscient Code Generator (Lite mode) build 49521"
   107  001E                     CPSCON0 equ 01Eh ;# 
   108                           opt subtitle "HI-TECH Software Omniscient Code Generator (Lite mode) build 49521"
   109  001F                     CPSCON1 equ 01Fh ;# 
   110                           opt subtitle "HI-TECH Software Omniscient Code Generator (Lite mode) build 49521"
   111  008C                     TRISA equ 08Ch ;# 
   112                           opt subtitle "HI-TECH Software Omniscient Code Generator (Lite mode) build 49521"
   113  008D                     TRISB equ 08Dh ;# 
   114                           opt subtitle "HI-TECH Software Omniscient Code Generator (Lite mode) build 49521"
   115  008E                     TRISC equ 08Eh ;# 
   116                           opt subtitle "HI-TECH Software Omniscient Code Generator (Lite mode) build 49521"
   117  008F                     TRISD equ 08Fh ;# 
   118                           opt subtitle "HI-TECH Software Omniscient Code Generator (Lite mode) build 49521"
   119  0090                     TRISE equ 090h ;# 
   120                           opt subtitle "HI-TECH Software Omniscient Code Generator (Lite mode) build 49521"
   121  0091                     PIE1 equ 091h ;# 
   122                           opt subtitle "HI-TECH Software Omniscient Code Generator (Lite mode) build 49521"
   123  0092                     PIE2 equ 092h ;# 
   124                           opt subtitle "HI-TECH Software Omniscient Code Generator (Lite mode) build 49521"
   125  0093                     PIE3 equ 093h ;# 
   126                           opt subtitle "HI-TECH Software Omniscient Code Generator (Lite mode) build 49521"
   127  0095                     OPTION_REG equ 095h ;# 
   128                           opt subtitle "HI-TECH Software Omniscient Code Generator (Lite mode) build 49521"
   129  0096                     PCON equ 096h ;# 
   130                           opt subtitle "HI-TECH Software Omniscient Code Generator (Lite mode) build 49521"
   131  0097                     WDTCON equ 097h ;# 
   132                           opt subtitle "HI-TECH Software Omniscient Code Generator (Lite mode) build 49521"
   133  0098                     OSCTUNE equ 098h ;# 
   134                           opt subtitle "HI-TECH Software Omniscient Code Generator (Lite mode) build 49521"
   135  0099                     OSCCON equ 099h ;# 
   136                           opt subtitle "HI-TECH Software Omniscient Code Generator (Lite mode) build 49521"
   137  009A                     OSCSTAT equ 09Ah ;# 
   138                           opt subtitle "HI-TECH Software Omniscient Code Generator (Lite mode) build 49521"
   139  009B                     ADRES equ 09Bh ;# 
   140                           opt subtitle "HI-TECH Software Omniscient Code Generator (Lite mode) build 49521"
   141  009B                     ADRESL equ 09Bh ;# 
   142                           opt subtitle "HI-TECH Software Omniscient Code Generator (Lite mode) build 49521"
   143  009C                     ADRESH equ 09Ch ;# 
   144                           opt subtitle "HI-TECH Software Omniscient Code Generator (Lite mode) build 49521"
   145  009D                     ADCON0 equ 09Dh ;# 
   146                           opt subtitle "HI-TECH Software Omniscient Code Generator (Lite mode) build 49521"
   147  009E                     ADCON1 equ 09Eh ;# 
   148                           opt subtitle "HI-TECH Software Omniscient Code Generator (Lite mode) build 49521"
   149  010C                     LATA equ 010Ch ;# 
   150                           opt subtitle "HI-TECH Software Omniscient Code Generator (Lite mode) build 49521"
   151  010D                     LATB equ 010Dh ;# 
   152                           opt subtitle "HI-TECH Software Omniscient Code Generator (Lite mode) build 49521"
   153  010E                     LATC equ 010Eh ;# 
   154                           opt subtitle "HI-TECH Software Omniscient Code Generator (Lite mode) build 49521"
   155  010F                     LATD equ 010Fh ;# 
   156                           opt subtitle "HI-TECH Software Omniscient Code Generator (Lite mode) build 49521"
   157  0110                     LATE equ 0110h ;# 
   158                           opt subtitle "HI-TECH Software Omniscient Code Generator (Lite mode) build 49521"
   159  0111                     CM1CON0 equ 0111h ;# 
   160                           opt subtitle "HI-TECH Software Omniscient Code Generator (Lite mode) build 49521"
   161  0112                     CM1CON1 equ 0112h ;# 
   162                           opt subtitle "HI-TECH Software Omniscient Code Generator (Lite mode) build 49521"
   163  0113                     CM2CON0 equ 0113h ;# 
   164                           opt subtitle "HI-TECH Software Omniscient Code Generator (Lite mode) build 49521"
   165  0114                     CM2CON1 equ 0114h ;# 
   166                           opt subtitle "HI-TECH Software Omniscient Code Generator (Lite mode) build 49521"
   167  0115                     CMOUT equ 0115h ;# 
   168                           opt subtitle "HI-TECH Software Omniscient Code Generator (Lite mode) build 49521"
   169  0116                     BORCON equ 0116h ;# 
   170                           opt subtitle "HI-TECH Software Omniscient Code Generator (Lite mode) build 49521"
   171  0117                     FVRCON equ 0117h ;# 
   172                           opt subtitle "HI-TECH Software Omniscient Code Generator (Lite mode) build 49521"
   173  0118                     DACCON0 equ 0118h ;# 
   174                           opt subtitle "HI-TECH Software Omniscient Code Generator (Lite mode) build 49521"
   175  0119                     DACCON1 equ 0119h ;# 
   176                           opt subtitle "HI-TECH Software Omniscient Code Generator (Lite mode) build 49521"
   177  011A                     SRCON0 equ 011Ah ;# 
   178                           opt subtitle "HI-TECH Software Omniscient Code Generator (Lite mode) build 49521"
   179  011B                     SRCON1 equ 011Bh ;# 
   180                           opt subtitle "HI-TECH Software Omniscient Code Generator (Lite mode) build 49521"
   181  011D                     APFCON equ 011Dh ;# 
   182                           opt subtitle "HI-TECH Software Omniscient Code Generator (Lite mode) build 49521"
   183  018C                     ANSELA equ 018Ch ;# 
   184                           opt subtitle "HI-TECH Software Omniscient Code Generator (Lite mode) build 49521"
   185  018D                     ANSELB equ 018Dh ;# 
   186                           opt subtitle "HI-TECH Software Omniscient Code Generator (Lite mode) build 49521"
   187  018F                     ANSELD equ 018Fh ;# 
   188                           opt subtitle "HI-TECH Software Omniscient Code Generator (Lite mode) build 49521"
   189  0190                     ANSELE equ 0190h ;# 
   190                           opt subtitle "HI-TECH Software Omniscient Code Generator (Lite mode) build 49521"
   191  0191                     EEADR equ 0191h ;# 
   192                           opt subtitle "HI-TECH Software Omniscient Code Generator (Lite mode) build 49521"
   193  0191                     EEADRL equ 0191h ;# 
   194                           opt subtitle "HI-TECH Software Omniscient Code Generator (Lite mode) build 49521"
   195  0192                     EEADRH equ 0192h ;# 
   196                           opt subtitle "HI-TECH Software Omniscient Code Generator (Lite mode) build 49521"
   197  0193                     EEDAT equ 0193h ;# 
   198                           opt subtitle "HI-TECH Software Omniscient Code Generator (Lite mode) build 49521"
   199  0193                     EEDATL equ 0193h ;# 
   200                           opt subtitle "HI-TECH Software Omniscient Code Generator (Lite mode) build 49521"
   201  0193                     EEDATA equ 0193h ;# 
   202                           opt subtitle "HI-TECH Software Omniscient Code Generator (Lite mode) build 49521"
   203  0194                     EEDATH equ 0194h ;# 
   204                           opt subtitle "HI-TECH Software Omniscient Code Generator (Lite mode) build 49521"
   205  0195                     EECON1 equ 0195h ;# 
   206                           opt subtitle "HI-TECH Software Omniscient Code Generator (Lite mode) build 49521"
   207  0196                     EECON2 equ 0196h ;# 
   208                           opt subtitle "HI-TECH Software Omniscient Code Generator (Lite mode) build 49521"
   209  0199                     RCREG equ 0199h ;# 
   210                           opt subtitle "HI-TECH Software Omniscient Code Generator (Lite mode) build 49521"
   211  019A                     TXREG equ 019Ah ;# 
   212                           opt subtitle "HI-TECH Software Omniscient Code Generator (Lite mode) build 49521"
   213  019B                     SPBRGL equ 019Bh ;# 
   214                           opt subtitle "HI-TECH Software Omniscient Code Generator (Lite mode) build 49521"
   215  019B                     SPBRG equ 019Bh ;# 
   216                           opt subtitle "HI-TECH Software Omniscient Code Generator (Lite mode) build 49521"
   217  019C                     SPBRGH equ 019Ch ;# 
   218                           opt subtitle "HI-TECH Software Omniscient Code Generator (Lite mode) build 49521"
   219  019D                     RCSTA equ 019Dh ;# 
   220                           opt subtitle "HI-TECH Software Omniscient Code Generator (Lite mode) build 49521"
   221  019E                     TXSTA equ 019Eh ;# 
   222                           opt subtitle "HI-TECH Software Omniscient Code Generator (Lite mode) build 49521"
   223  019F                     BAUDCON equ 019Fh ;# 
   224                           opt subtitle "HI-TECH Software Omniscient Code Generator (Lite mode) build 49521"
   225  020D                     WPUB equ 020Dh ;# 
   226                           opt subtitle "HI-TECH Software Omniscient Code Generator (Lite mode) build 49521"
   227  0210                     WPUE equ 0210h ;# 
   228                           opt subtitle "HI-TECH Software Omniscient Code Generator (Lite mode) build 49521"
   229  0211                     SSPBUF equ 0211h ;# 
   230                           opt subtitle "HI-TECH Software Omniscient Code Generator (Lite mode) build 49521"
   231  0212                     SSPADD equ 0212h ;# 
   232                           opt subtitle "HI-TECH Software Omniscient Code Generator (Lite mode) build 49521"
   233  0213                     SSPMSK equ 0213h ;# 
   234                           opt subtitle "HI-TECH Software Omniscient Code Generator (Lite mode) build 49521"
   235  0214                     SSPSTAT equ 0214h ;# 
   236                           opt subtitle "HI-TECH Software Omniscient Code Generator (Lite mode) build 49521"
   237  0215                     SSPCON1 equ 0215h ;# 
   238                           opt subtitle "HI-TECH Software Omniscient Code Generator (Lite mode) build 49521"
   239  0215                     SSPCON equ 0215h ;# 
   240                           opt subtitle "HI-TECH Software Omniscient Code Generator (Lite mode) build 49521"
   241  0216                     SSPCON2 equ 0216h ;# 
   242                           opt subtitle "HI-TECH Software Omniscient Code Generator (Lite mode) build 49521"
   243  0217                     SSPCON3 equ 0217h ;# 
   244                           opt subtitle "HI-TECH Software Omniscient Code Generator (Lite mode) build 49521"
   245  0291                     CCPR1L equ 0291h ;# 
   246                           opt subtitle "HI-TECH Software Omniscient Code Generator (Lite mode) build 49521"
   247  0292                     CCPR1H equ 0292h ;# 
   248                           opt subtitle "HI-TECH Software Omniscient Code Generator (Lite mode) build 49521"
   249  0293                     CCP1CON equ 0293h ;# 
   250                           opt subtitle "HI-TECH Software Omniscient Code Generator (Lite mode) build 49521"
   251  0294                     PWM1CON equ 0294h ;# 
   252                           opt subtitle "HI-TECH Software Omniscient Code Generator (Lite mode) build 49521"
   253  0295                     CCP1AS equ 0295h ;# 
   254                           opt subtitle "HI-TECH Software Omniscient Code Generator (Lite mode) build 49521"
   255  0295                     ECCP1AS equ 0295h ;# 
   256                           opt subtitle "HI-TECH Software Omniscient Code Generator (Lite mode) build 49521"
   257  0296                     PSTR1CON equ 0296h ;# 
   258                           opt subtitle "HI-TECH Software Omniscient Code Generator (Lite mode) build 49521"
   259  0298                     CCPR2L equ 0298h ;# 
   260                           opt subtitle "HI-TECH Software Omniscient Code Generator (Lite mode) build 49521"
   261  0299                     CCPR2H equ 0299h ;# 
   262                           opt subtitle "HI-TECH Software Omniscient Code Generator (Lite mode) build 49521"
   263  029A                     CCP2CON equ 029Ah ;# 
   264                           opt subtitle "HI-TECH Software Omniscient Code Generator (Lite mode) build 49521"
   265  029B                     PWM2CON equ 029Bh ;# 
   266                           opt subtitle "HI-TECH Software Omniscient Code Generator (Lite mode) build 49521"
   267  029C                     CCP2AS equ 029Ch ;# 
   268                           opt subtitle "HI-TECH Software Omniscient Code Generator (Lite mode) build 49521"
   269  029C                     ECCP2AS equ 029Ch ;# 
   270                           opt subtitle "HI-TECH Software Omniscient Code Generator (Lite mode) build 49521"
   271  029D                     PSTR2CON equ 029Dh ;# 
   272                           opt subtitle "HI-TECH Software Omniscient Code Generator (Lite mode) build 49521"
   273  029E                     CCPTMRS0 equ 029Eh ;# 
   274                           opt subtitle "HI-TECH Software Omniscient Code Generator (Lite mode) build 49521"
   275  029F                     CCPTMRS1 equ 029Fh ;# 
   276                           opt subtitle "HI-TECH Software Omniscient Code Generator (Lite mode) build 49521"
   277  0311                     CCPR3L equ 0311h ;# 
   278                           opt subtitle "HI-TECH Software Omniscient Code Generator (Lite mode) build 49521"
   279  0312                     CCPR3H equ 0312h ;# 
   280                           opt subtitle "HI-TECH Software Omniscient Code Generator (Lite mode) build 49521"
   281  0313                     CCP3CON equ 0313h ;# 
   282                           opt subtitle "HI-TECH Software Omniscient Code Generator (Lite mode) build 49521"
   283  0314                     PWM3CON equ 0314h ;# 
   284                           opt subtitle "HI-TECH Software Omniscient Code Generator (Lite mode) build 49521"
   285  0315                     CCP3AS equ 0315h ;# 
   286                           opt subtitle "HI-TECH Software Omniscient Code Generator (Lite mode) build 49521"
   287  0315                     ECCP3AS equ 0315h ;# 
   288                           opt subtitle "HI-TECH Software Omniscient Code Generator (Lite mode) build 49521"
   289  0316                     PSTR3CON equ 0316h ;# 
   290                           opt subtitle "HI-TECH Software Omniscient Code Generator (Lite mode) build 49521"
   291  0318                     CCPR4L equ 0318h ;# 
   292                           opt subtitle "HI-TECH Software Omniscient Code Generator (Lite mode) build 49521"
   293  0319                     CCPR4H equ 0319h ;# 
   294                           opt subtitle "HI-TECH Software Omniscient Code Generator (Lite mode) build 49521"
   295  031A                     CCP4CON equ 031Ah ;# 
   296                           opt subtitle "HI-TECH Software Omniscient Code Generator (Lite mode) build 49521"
   297  031C                     CCPR5L equ 031Ch ;# 
   298                           opt subtitle "HI-TECH Software Omniscient Code Generator (Lite mode) build 49521"
   299  031D                     CCPR5H equ 031Dh ;# 
   300                           opt subtitle "HI-TECH Software Omniscient Code Generator (Lite mode) build 49521"
   301  031E                     CCP5CON equ 031Eh ;# 
   302                           opt subtitle "HI-TECH Software Omniscient Code Generator (Lite mode) build 49521"
   303  0394                     IOCBP equ 0394h ;# 
   304                           opt subtitle "HI-TECH Software Omniscient Code Generator (Lite mode) build 49521"
   305  0395                     IOCBN equ 0395h ;# 
   306                           opt subtitle "HI-TECH Software Omniscient Code Generator (Lite mode) build 49521"
   307  0396                     IOCBF equ 0396h ;# 
   308                           opt subtitle "HI-TECH Software Omniscient Code Generator (Lite mode) build 49521"
   309  0415                     TMR4 equ 0415h ;# 
   310                           opt subtitle "HI-TECH Software Omniscient Code Generator (Lite mode) build 49521"
   311  0416                     PR4 equ 0416h ;# 
   312                           opt subtitle "HI-TECH Software Omniscient Code Generator (Lite mode) build 49521"
   313  0417                     T4CON equ 0417h ;# 
   314                           opt subtitle "HI-TECH Software Omniscient Code Generator (Lite mode) build 49521"
   315  041C                     TMR6 equ 041Ch ;# 
   316                           opt subtitle "HI-TECH Software Omniscient Code Generator (Lite mode) build 49521"
   317  041D                     PR6 equ 041Dh ;# 
   318                           opt subtitle "HI-TECH Software Omniscient Code Generator (Lite mode) build 49521"
   319  041E                     T6CON equ 041Eh ;# 
   320                           opt subtitle "HI-TECH Software Omniscient Code Generator (Lite mode) build 49521"
   321  0791                     LCDCON equ 0791h ;# 
   322                           opt subtitle "HI-TECH Software Omniscient Code Generator (Lite mode) build 49521"
   323  0792                     LCDPS equ 0792h ;# 
   324                           opt subtitle "HI-TECH Software Omniscient Code Generator (Lite mode) build 49521"
   325  0793                     LCDREF equ 0793h ;# 
   326                           opt subtitle "HI-TECH Software Omniscient Code Generator (Lite mode) build 49521"
   327  0794                     LCDCST equ 0794h ;# 
   328                           opt subtitle "HI-TECH Software Omniscient Code Generator (Lite mode) build 49521"
   329  0795                     LCDRL equ 0795h ;# 
   330                           opt subtitle "HI-TECH Software Omniscient Code Generator (Lite mode) build 49521"
   331  0798                     LCDSE0 equ 0798h ;# 
   332                           opt subtitle "HI-TECH Software Omniscient Code Generator (Lite mode) build 49521"
   333  0799                     LCDSE1 equ 0799h ;# 
   334                           opt subtitle "HI-TECH Software Omniscient Code Generator (Lite mode) build 49521"
   335  079A                     LCDSE2 equ 079Ah ;# 
   336                           opt subtitle "HI-TECH Software Omniscient Code Generator (Lite mode) build 49521"
   337  07A0                     LCDDATA0 equ 07A0h ;# 
   338                           opt subtitle "HI-TECH Software Omniscient Code Generator (Lite mode) build 49521"
   339  07A1                     LCDDATA1 equ 07A1h ;# 
   340                           opt subtitle "HI-TECH Software Omniscient Code Generator (Lite mode) build 49521"
   341  07A2                     LCDDATA2 equ 07A2h ;# 
   342                           opt subtitle "HI-TECH Software Omniscient Code Generator (Lite mode) build 49521"
   343  07A3                     LCDDATA3 equ 07A3h ;# 
   344                           opt subtitle "HI-TECH Software Omniscient Code Generator (Lite mode) build 49521"
   345  07A4                     LCDDATA4 equ 07A4h ;# 
   346                           opt subtitle "HI-TECH Software Omniscient Code Generator (Lite mode) build 49521"
   347  07A5                     LCDDATA5 equ 07A5h ;# 
   348                           opt subtitle "HI-TECH Software Omniscient Code Generator (Lite mode) build 49521"
   349  07A6                     LCDDATA6 equ 07A6h ;# 
   350                           opt subtitle "HI-TECH Software Omniscient Code Generator (Lite mode) build 49521"
   351  07A7                     LCDDATA7 equ 07A7h ;# 
   352                           opt subtitle "HI-TECH Software Omniscient Code Generator (Lite mode) build 49521"
   353  07A8                     LCDDATA8 equ 07A8h ;# 
   354                           opt subtitle "HI-TECH Software Omniscient Code Generator (Lite mode) build 49521"
   355  07A9                     LCDDATA9 equ 07A9h ;# 
   356                           opt subtitle "HI-TECH Software Omniscient Code Generator (Lite mode) build 49521"
   357  07AA                     LCDDATA10 equ 07AAh ;# 
   358                           opt subtitle "HI-TECH Software Omniscient Code Generator (Lite mode) build 49521"
   359  07AB                     LCDDATA11 equ 07ABh ;# 
   360                           opt subtitle "HI-TECH Software Omniscient Code Generator (Lite mode) build 49521"
   361  0FE4                     STATUS_SHAD equ 0FE4h ;# 
   362                           opt subtitle "HI-TECH Software Omniscient Code Generator (Lite mode) build 49521"
   363  0FE5                     WREG_SHAD equ 0FE5h ;# 
   364                           opt subtitle "HI-TECH Software Omniscient Code Generator (Lite mode) build 49521"
   365  0FE6                     BSR_SHAD equ 0FE6h ;# 
   366                           opt subtitle "HI-TECH Software Omniscient Code Generator (Lite mode) build 49521"
   367  0FE7                     PCLATH_SHAD equ 0FE7h ;# 
   368                           opt subtitle "HI-TECH Software Omniscient Code Generator (Lite mode) build 49521"
   369  0FE8                     FSR0L_SHAD equ 0FE8h ;# 
   370                           opt subtitle "HI-TECH Software Omniscient Code Generator (Lite mode) build 49521"
   371  0FE9                     FSR0H_SHAD equ 0FE9h ;# 
   372                           opt subtitle "HI-TECH Software Omniscient Code Generator (Lite mode) build 49521"
   373  0FEA                     FSR1L_SHAD equ 0FEAh ;# 
   374                           opt subtitle "HI-TECH Software Omniscient Code Generator (Lite mode) build 49521"
   375  0FEB                     FSR1H_SHAD equ 0FEBh ;# 
   376                           opt subtitle "HI-TECH Software Omniscient Code Generator (Lite mode) build 49521"
   377  0FED                     STKPTR equ 0FEDh ;# 
   378                           opt subtitle "HI-TECH Software Omniscient Code Generator (Lite mode) build 49521"
   379  0FEE                     TOSL equ 0FEEh ;# 
   380                           opt subtitle "HI-TECH Software Omniscient Code Generator (Lite mode) build 49521"
   381  0FEF                     TOSH equ 0FEFh ;# 
   382                           opt subtitle "HI-TECH Software Omniscient Code Generator (Lite mode) build 49521"
   383  0000                     INDF0 equ 00h ;# 
   384                           opt subtitle "HI-TECH Software Omniscient Code Generator (Lite mode) build 49521"
   385  0001                     INDF1 equ 01h ;# 
   386                           opt subtitle "HI-TECH Software Omniscient Code Generator (Lite mode) build 49521"
   387  0002                     PCL equ 02h ;# 
   388                           opt subtitle "HI-TECH Software Omniscient Code Generator (Lite mode) build 49521"
   389  0003                     STATUS equ 03h ;# 
   390                           opt subtitle "HI-TECH Software Omniscient Code Generator (Lite mode) build 49521"
   391  0004                     FSR0L equ 04h ;# 
   392                           opt subtitle "HI-TECH Software Omniscient Code Generator (Lite mode) build 49521"
   393  0005                     FSR0H equ 05h ;# 
   394                           opt subtitle "HI-TECH Software Omniscient Code Generator (Lite mode) build 49521"
   395  0006                     FSR1L equ 06h ;# 
   396                           opt subtitle "HI-TECH Software Omniscient Code Generator (Lite mode) build 49521"
   397  0007                     FSR1H equ 07h ;# 
   398                           opt subtitle "HI-TECH Software Omniscient Code Generator (Lite mode) build 49521"
   399  0008                     BSR equ 08h ;# 
   400                           opt subtitle "HI-TECH Software Omniscient Code Generator (Lite mode) build 49521"
   401  0009                     WREG equ 09h ;# 
   402                           opt subtitle "HI-TECH Software Omniscient Code Generator (Lite mode) build 49521"
   403  000A                     PCLATH equ 0Ah ;# 
   404                           opt subtitle "HI-TECH Software Omniscient Code Generator (Lite mode) build 49521"
   405  000B                     INTCON equ 0Bh ;# 
   406                           opt subtitle "HI-TECH Software Omniscient Code Generator (Lite mode) build 49521"
   407  000C                     PORTA equ 0Ch ;# 
   408                           opt subtitle "HI-TECH Software Omniscient Code Generator (Lite mode) build 49521"
   409  000D                     PORTB equ 0Dh ;# 
   410                           opt subtitle "HI-TECH Software Omniscient Code Generator (Lite mode) build 49521"
   411  000E                     PORTC equ 0Eh ;# 
   412                           opt subtitle "HI-TECH Software Omniscient Code Generator (Lite mode) build 49521"
   413  000F                     PORTD equ 0Fh ;# 
   414                           opt subtitle "HI-TECH Software Omniscient Code Generator (Lite mode) build 49521"
   415  0010                     PORTE equ 010h ;# 
   416                           opt subtitle "HI-TECH Software Omniscient Code Generator (Lite mode) build 49521"
   417  0011                     PIR1 equ 011h ;# 
   418                           opt subtitle "HI-TECH Software Omniscient Code Generator (Lite mode) build 49521"
   419  0012                     PIR2 equ 012h ;# 
   420                           opt subtitle "HI-TECH Software Omniscient Code Generator (Lite mode) build 49521"
   421  0013                     PIR3 equ 013h ;# 
   422                           opt subtitle "HI-TECH Software Omniscient Code Generator (Lite mode) build 49521"
   423  0015                     TMR0 equ 015h ;# 
   424                           opt subtitle "HI-TECH Software Omniscient Code Generator (Lite mode) build 49521"
   425  0016                     TMR1 equ 016h ;# 
   426                           opt subtitle "HI-TECH Software Omniscient Code Generator (Lite mode) build 49521"
   427  0016                     TMR1L equ 016h ;# 
   428                           opt subtitle "HI-TECH Software Omniscient Code Generator (Lite mode) build 49521"
   429  0017                     TMR1H equ 017h ;# 
   430                           opt subtitle "HI-TECH Software Omniscient Code Generator (Lite mode) build 49521"
   431  0018                     T1CON equ 018h ;# 
   432                           opt subtitle "HI-TECH Software Omniscient Code Generator (Lite mode) build 49521"
   433  0019                     T1GCON equ 019h ;# 
   434                           opt subtitle "HI-TECH Software Omniscient Code Generator (Lite mode) build 49521"
   435  001A                     TMR2 equ 01Ah ;# 
   436                           opt subtitle "HI-TECH Software Omniscient Code Generator (Lite mode) build 49521"
   437  001B                     PR2 equ 01Bh ;# 
   438                           opt subtitle "HI-TECH Software Omniscient Code Generator (Lite mode) build 49521"
   439  001C                     T2CON equ 01Ch ;# 
   440                           opt subtitle "HI-TECH Software Omniscient Code Generator (Lite mode) build 49521"
   441  001E                     CPSCON0 equ 01Eh ;# 
   442                           opt subtitle "HI-TECH Software Omniscient Code Generator (Lite mode) build 49521"
   443  001F                     CPSCON1 equ 01Fh ;# 
   444                           opt subtitle "HI-TECH Software Omniscient Code Generator (Lite mode) build 49521"
   445  008C                     TRISA equ 08Ch ;# 
   446                           opt subtitle "HI-TECH Software Omniscient Code Generator (Lite mode) build 49521"
   447  008D                     TRISB equ 08Dh ;# 
   448                           opt subtitle "HI-TECH Software Omniscient Code Generator (Lite mode) build 49521"
   449  008E                     TRISC equ 08Eh ;# 
   450                           opt subtitle "HI-TECH Software Omniscient Code Generator (Lite mode) build 49521"
   451  008F                     TRISD equ 08Fh ;# 
   452                           opt subtitle "HI-TECH Software Omniscient Code Generator (Lite mode) build 49521"
   453  0090                     TRISE equ 090h ;# 
   454                           opt subtitle "HI-TECH Software Omniscient Code Generator (Lite mode) build 49521"
   455  0091                     PIE1 equ 091h ;# 
   456                           opt subtitle "HI-TECH Software Omniscient Code Generator (Lite mode) build 49521"
   457  0092                     PIE2 equ 092h ;# 
   458                           opt subtitle "HI-TECH Software Omniscient Code Generator (Lite mode) build 49521"
   459  0093                     PIE3 equ 093h ;# 
   460                           opt subtitle "HI-TECH Software Omniscient Code Generator (Lite mode) build 49521"
   461  0095                     OPTION_REG equ 095h ;# 
   462                           opt subtitle "HI-TECH Software Omniscient Code Generator (Lite mode) build 49521"
   463  0096                     PCON equ 096h ;# 
   464                           opt subtitle "HI-TECH Software Omniscient Code Generator (Lite mode) build 49521"
   465  0097                     WDTCON equ 097h ;# 
   466                           opt subtitle "HI-TECH Software Omniscient Code Generator (Lite mode) build 49521"
   467  0098                     OSCTUNE equ 098h ;# 
   468                           opt subtitle "HI-TECH Software Omniscient Code Generator (Lite mode) build 49521"
   469  0099                     OSCCON equ 099h ;# 
   470                           opt subtitle "HI-TECH Software Omniscient Code Generator (Lite mode) build 49521"
   471  009A                     OSCSTAT equ 09Ah ;# 
   472                           opt subtitle "HI-TECH Software Omniscient Code Generator (Lite mode) build 49521"
   473  009B                     ADRES equ 09Bh ;# 
   474                           opt subtitle "HI-TECH Software Omniscient Code Generator (Lite mode) build 49521"
   475  009B                     ADRESL equ 09Bh ;# 
   476                           opt subtitle "HI-TECH Software Omniscient Code Generator (Lite mode) build 49521"
   477  009C                     ADRESH equ 09Ch ;# 
   478                           opt subtitle "HI-TECH Software Omniscient Code Generator (Lite mode) build 49521"
   479  009D                     ADCON0 equ 09Dh ;# 
   480                           opt subtitle "HI-TECH Software Omniscient Code Generator (Lite mode) build 49521"
   481  009E                     ADCON1 equ 09Eh ;# 
   482                           opt subtitle "HI-TECH Software Omniscient Code Generator (Lite mode) build 49521"
   483  010C                     LATA equ 010Ch ;# 
   484                           opt subtitle "HI-TECH Software Omniscient Code Generator (Lite mode) build 49521"
   485  010D                     LATB equ 010Dh ;# 
   486                           opt subtitle "HI-TECH Software Omniscient Code Generator (Lite mode) build 49521"
   487  010E                     LATC equ 010Eh ;# 
   488                           opt subtitle "HI-TECH Software Omniscient Code Generator (Lite mode) build 49521"
   489  010F                     LATD equ 010Fh ;# 
   490                           opt subtitle "HI-TECH Software Omniscient Code Generator (Lite mode) build 49521"
   491  0110                     LATE equ 0110h ;# 
   492                           opt subtitle "HI-TECH Software Omniscient Code Generator (Lite mode) build 49521"
   493  0111                     CM1CON0 equ 0111h ;# 
   494                           opt subtitle "HI-TECH Software Omniscient Code Generator (Lite mode) build 49521"
   495  0112                     CM1CON1 equ 0112h ;# 
   496                           opt subtitle "HI-TECH Software Omniscient Code Generator (Lite mode) build 49521"
   497  0113                     CM2CON0 equ 0113h ;# 
   498                           opt subtitle "HI-TECH Software Omniscient Code Generator (Lite mode) build 49521"
   499  0114                     CM2CON1 equ 0114h ;# 
   500                           opt subtitle "HI-TECH Software Omniscient Code Generator (Lite mode) build 49521"
   501  0115                     CMOUT equ 0115h ;# 
   502                           opt subtitle "HI-TECH Software Omniscient Code Generator (Lite mode) build 49521"
   503  0116                     BORCON equ 0116h ;# 
   504                           opt subtitle "HI-TECH Software Omniscient Code Generator (Lite mode) build 49521"
   505  0117                     FVRCON equ 0117h ;# 
   506                           opt subtitle "HI-TECH Software Omniscient Code Generator (Lite mode) build 49521"
   507  0118                     DACCON0 equ 0118h ;# 
   508                           opt subtitle "HI-TECH Software Omniscient Code Generator (Lite mode) build 49521"
   509  0119                     DACCON1 equ 0119h ;# 
   510                           opt subtitle "HI-TECH Software Omniscient Code Generator (Lite mode) build 49521"
   511  011A                     SRCON0 equ 011Ah ;# 
   512                           opt subtitle "HI-TECH Software Omniscient Code Generator (Lite mode) build 49521"
   513  011B                     SRCON1 equ 011Bh ;# 
   514                           opt subtitle "HI-TECH Software Omniscient Code Generator (Lite mode) build 49521"
   515  011D                     APFCON equ 011Dh ;# 
   516                           opt subtitle "HI-TECH Software Omniscient Code Generator (Lite mode) build 49521"
   517  018C                     ANSELA equ 018Ch ;# 
   518                           opt subtitle "HI-TECH Software Omniscient Code Generator (Lite mode) build 49521"
   519  018D                     ANSELB equ 018Dh ;# 
   520                           opt subtitle "HI-TECH Software Omniscient Code Generator (Lite mode) build 49521"
   521  018F                     ANSELD equ 018Fh ;# 
   522                           opt subtitle "HI-TECH Software Omniscient Code Generator (Lite mode) build 49521"
   523  0190                     ANSELE equ 0190h ;# 
   524                           opt subtitle "HI-TECH Software Omniscient Code Generator (Lite mode) build 49521"
   525  0191                     EEADR equ 0191h ;# 
   526                           opt subtitle "HI-TECH Software Omniscient Code Generator (Lite mode) build 49521"
   527  0191                     EEADRL equ 0191h ;# 
   528                           opt subtitle "HI-TECH Software Omniscient Code Generator (Lite mode) build 49521"
   529  0192                     EEADRH equ 0192h ;# 
   530                           opt subtitle "HI-TECH Software Omniscient Code Generator (Lite mode) build 49521"
   531  0193                     EEDAT equ 0193h ;# 
   532                           opt subtitle "HI-TECH Software Omniscient Code Generator (Lite mode) build 49521"
   533  0193                     EEDATL equ 0193h ;# 
   534                           opt subtitle "HI-TECH Software Omniscient Code Generator (Lite mode) build 49521"
   535  0193                     EEDATA equ 0193h ;# 
   536                           opt subtitle "HI-TECH Software Omniscient Code Generator (Lite mode) build 49521"
   537  0194                     EEDATH equ 0194h ;# 
   538                           opt subtitle "HI-TECH Software Omniscient Code Generator (Lite mode) build 49521"
   539  0195                     EECON1 equ 0195h ;# 
   540                           opt subtitle "HI-TECH Software Omniscient Code Generator (Lite mode) build 49521"
   541  0196                     EECON2 equ 0196h ;# 
   542                           opt subtitle "HI-TECH Software Omniscient Code Generator (Lite mode) build 49521"
   543  0199                     RCREG equ 0199h ;# 
   544                           opt subtitle "HI-TECH Software Omniscient Code Generator (Lite mode) build 49521"
   545  019A                     TXREG equ 019Ah ;# 
   546                           opt subtitle "HI-TECH Software Omniscient Code Generator (Lite mode) build 49521"
   547  019B                     SPBRGL equ 019Bh ;# 
   548                           opt subtitle "HI-TECH Software Omniscient Code Generator (Lite mode) build 49521"
   549  019B                     SPBRG equ 019Bh ;# 
   550                           opt subtitle "HI-TECH Software Omniscient Code Generator (Lite mode) build 49521"
   551  019C                     SPBRGH equ 019Ch ;# 
   552                           opt subtitle "HI-TECH Software Omniscient Code Generator (Lite mode) build 49521"
   553  019D                     RCSTA equ 019Dh ;# 
   554                           opt subtitle "HI-TECH Software Omniscient Code Generator (Lite mode) build 49521"
   555  019E                     TXSTA equ 019Eh ;# 
   556                           opt subtitle "HI-TECH Software Omniscient Code Generator (Lite mode) build 49521"
   557  019F                     BAUDCON equ 019Fh ;# 
   558                           opt subtitle "HI-TECH Software Omniscient Code Generator (Lite mode) build 49521"
   559  020D                     WPUB equ 020Dh ;# 
   560                           opt subtitle "HI-TECH Software Omniscient Code Generator (Lite mode) build 49521"
   561  0210                     WPUE equ 0210h ;# 
   562                           opt subtitle "HI-TECH Software Omniscient Code Generator (Lite mode) build 49521"
   563  0211                     SSPBUF equ 0211h ;# 
   564                           opt subtitle "HI-TECH Software Omniscient Code Generator (Lite mode) build 49521"
   565  0212                     SSPADD equ 0212h ;# 
   566                           opt subtitle "HI-TECH Software Omniscient Code Generator (Lite mode) build 49521"
   567  0213                     SSPMSK equ 0213h ;# 
   568                           opt subtitle "HI-TECH Software Omniscient Code Generator (Lite mode) build 49521"
   569  0214                     SSPSTAT equ 0214h ;# 
   570                           opt subtitle "HI-TECH Software Omniscient Code Generator (Lite mode) build 49521"
   571  0215                     SSPCON1 equ 0215h ;# 
   572                           opt subtitle "HI-TECH Software Omniscient Code Generator (Lite mode) build 49521"
   573  0215                     SSPCON equ 0215h ;# 
   574                           opt subtitle "HI-TECH Software Omniscient Code Generator (Lite mode) build 49521"
   575  0216                     SSPCON2 equ 0216h ;# 
   576                           opt subtitle "HI-TECH Software Omniscient Code Generator (Lite mode) build 49521"
   577  0217                     SSPCON3 equ 0217h ;# 
   578                           opt subtitle "HI-TECH Software Omniscient Code Generator (Lite mode) build 49521"
   579  0291                     CCPR1L equ 0291h ;# 
   580                           opt subtitle "HI-TECH Software Omniscient Code Generator (Lite mode) build 49521"
   581  0292                     CCPR1H equ 0292h ;# 
   582                           opt subtitle "HI-TECH Software Omniscient Code Generator (Lite mode) build 49521"
   583  0293                     CCP1CON equ 0293h ;# 
   584                           opt subtitle "HI-TECH Software Omniscient Code Generator (Lite mode) build 49521"
   585  0294                     PWM1CON equ 0294h ;# 
   586                           opt subtitle "HI-TECH Software Omniscient Code Generator (Lite mode) build 49521"
   587  0295                     CCP1AS equ 0295h ;# 
   588                           opt subtitle "HI-TECH Software Omniscient Code Generator (Lite mode) build 49521"
   589  0295                     ECCP1AS equ 0295h ;# 
   590                           opt subtitle "HI-TECH Software Omniscient Code Generator (Lite mode) build 49521"
   591  0296                     PSTR1CON equ 0296h ;# 
   592                           opt subtitle "HI-TECH Software Omniscient Code Generator (Lite mode) build 49521"
   593  0298                     CCPR2L equ 0298h ;# 
   594                           opt subtitle "HI-TECH Software Omniscient Code Generator (Lite mode) build 49521"
   595  0299                     CCPR2H equ 0299h ;# 
   596                           opt subtitle "HI-TECH Software Omniscient Code Generator (Lite mode) build 49521"
   597  029A                     CCP2CON equ 029Ah ;# 
   598                           opt subtitle "HI-TECH Software Omniscient Code Generator (Lite mode) build 49521"
   599  029B                     PWM2CON equ 029Bh ;# 
   600                           opt subtitle "HI-TECH Software Omniscient Code Generator (Lite mode) build 49521"
   601  029C                     CCP2AS equ 029Ch ;# 
   602                           opt subtitle "HI-TECH Software Omniscient Code Generator (Lite mode) build 49521"
   603  029C                     ECCP2AS equ 029Ch ;# 
   604                           opt subtitle "HI-TECH Software Omniscient Code Generator (Lite mode) build 49521"
   605  029D                     PSTR2CON equ 029Dh ;# 
   606                           opt subtitle "HI-TECH Software Omniscient Code Generator (Lite mode) build 49521"
   607  029E                     CCPTMRS0 equ 029Eh ;# 
   608                           opt subtitle "HI-TECH Software Omniscient Code Generator (Lite mode) build 49521"
   609  029F                     CCPTMRS1 equ 029Fh ;# 
   610                           opt subtitle "HI-TECH Software Omniscient Code Generator (Lite mode) build 49521"
   611  0311                     CCPR3L equ 0311h ;# 
   612                           opt subtitle "HI-TECH Software Omniscient Code Generator (Lite mode) build 49521"
   613  0312                     CCPR3H equ 0312h ;# 
   614                           opt subtitle "HI-TECH Software Omniscient Code Generator (Lite mode) build 49521"
   615  0313                     CCP3CON equ 0313h ;# 
   616                           opt subtitle "HI-TECH Software Omniscient Code Generator (Lite mode) build 49521"
   617  0314                     PWM3CON equ 0314h ;# 
   618                           opt subtitle "HI-TECH Software Omniscient Code Generator (Lite mode) build 49521"
   619  0315                     CCP3AS equ 0315h ;# 
   620                           opt subtitle "HI-TECH Software Omniscient Code Generator (Lite mode) build 49521"
   621  0315                     ECCP3AS equ 0315h ;# 
   622                           opt subtitle "HI-TECH Software Omniscient Code Generator (Lite mode) build 49521"
   623  0316                     PSTR3CON equ 0316h ;# 
   624                           opt subtitle "HI-TECH Software Omniscient Code Generator (Lite mode) build 49521"
   625  0318                     CCPR4L equ 0318h ;# 
   626                           opt subtitle "HI-TECH Software Omniscient Code Generator (Lite mode) build 49521"
   627  0319                     CCPR4H equ 0319h ;# 
   628                           opt subtitle "HI-TECH Software Omniscient Code Generator (Lite mode) build 49521"
   629  031A                     CCP4CON equ 031Ah ;# 
   630                           opt subtitle "HI-TECH Software Omniscient Code Generator (Lite mode) build 49521"
   631  031C                     CCPR5L equ 031Ch ;# 
   632                           opt subtitle "HI-TECH Software Omniscient Code Generator (Lite mode) build 49521"
   633  031D                     CCPR5H equ 031Dh ;# 
   634                           opt subtitle "HI-TECH Software Omniscient Code Generator (Lite mode) build 49521"
   635  031E                     CCP5CON equ 031Eh ;# 
   636                           opt subtitle "HI-TECH Software Omniscient Code Generator (Lite mode) build 49521"
   637  0394                     IOCBP equ 0394h ;# 
   638                           opt subtitle "HI-TECH Software Omniscient Code Generator (Lite mode) build 49521"
   639  0395                     IOCBN equ 0395h ;# 
   640                           opt subtitle "HI-TECH Software Omniscient Code Generator (Lite mode) build 49521"
   641  0396                     IOCBF equ 0396h ;# 
   642                           opt subtitle "HI-TECH Software Omniscient Code Generator (Lite mode) build 49521"
   643  0415                     TMR4 equ 0415h ;# 
   644                           opt subtitle "HI-TECH Software Omniscient Code Generator (Lite mode) build 49521"
   645  0416                     PR4 equ 0416h ;# 
   646                           opt subtitle "HI-TECH Software Omniscient Code Generator (Lite mode) build 49521"
   647  0417                     T4CON equ 0417h ;# 
   648                           opt subtitle "HI-TECH Software Omniscient Code Generator (Lite mode) build 49521"
   649  041C                     TMR6 equ 041Ch ;# 
   650                           opt subtitle "HI-TECH Software Omniscient Code Generator (Lite mode) build 49521"
   651  041D                     PR6 equ 041Dh ;# 
   652                           opt subtitle "HI-TECH Software Omniscient Code Generator (Lite mode) build 49521"
   653  041E                     T6CON equ 041Eh ;# 
   654                           opt subtitle "HI-TECH Software Omniscient Code Generator (Lite mode) build 49521"
   655  0791                     LCDCON equ 0791h ;# 
   656                           opt subtitle "HI-TECH Software Omniscient Code Generator (Lite mode) build 49521"
   657  0792                     LCDPS equ 0792h ;# 
   658                           opt subtitle "HI-TECH Software Omniscient Code Generator (Lite mode) build 49521"
   659  0793                     LCDREF equ 0793h ;# 
   660                           opt subtitle "HI-TECH Software Omniscient Code Generator (Lite mode) build 49521"
   661  0794                     LCDCST equ 0794h ;# 
   662                           opt subtitle "HI-TECH Software Omniscient Code Generator (Lite mode) build 49521"
   663  0795                     LCDRL equ 0795h ;# 
   664                           opt subtitle "HI-TECH Software Omniscient Code Generator (Lite mode) build 49521"
   665  0798                     LCDSE0 equ 0798h ;# 
   666                           opt subtitle "HI-TECH Software Omniscient Code Generator (Lite mode) build 49521"
   667  0799                     LCDSE1 equ 0799h ;# 
   668                           opt subtitle "HI-TECH Software Omniscient Code Generator (Lite mode) build 49521"
   669  079A                     LCDSE2 equ 079Ah ;# 
   670                           opt subtitle "HI-TECH Software Omniscient Code Generator (Lite mode) build 49521"
   671  07A0                     LCDDATA0 equ 07A0h ;# 
   672                           opt subtitle "HI-TECH Software Omniscient Code Generator (Lite mode) build 49521"
   673  07A1                     LCDDATA1 equ 07A1h ;# 
   674                           opt subtitle "HI-TECH Software Omniscient Code Generator (Lite mode) build 49521"
   675  07A2                     LCDDATA2 equ 07A2h ;# 
   676                           opt subtitle "HI-TECH Software Omniscient Code Generator (Lite mode) build 49521"
   677  07A3                     LCDDATA3 equ 07A3h ;# 
   678                           opt subtitle "HI-TECH Software Omniscient Code Generator (Lite mode) build 49521"
   679  07A4                     LCDDATA4 equ 07A4h ;# 
   680                           opt subtitle "HI-TECH Software Omniscient Code Generator (Lite mode) build 49521"
   681  07A5                     LCDDATA5 equ 07A5h ;# 
   682                           opt subtitle "HI-TECH Software Omniscient Code Generator (Lite mode) build 49521"
   683  07A6                     LCDDATA6 equ 07A6h ;# 
   684                           opt subtitle "HI-TECH Software Omniscient Code Generator (Lite mode) build 49521"
   685  07A7                     LCDDATA7 equ 07A7h ;# 
   686                           opt subtitle "HI-TECH Software Omniscient Code Generator (Lite mode) build 49521"
   687  07A8                     LCDDATA8 equ 07A8h ;# 
   688                           opt subtitle "HI-TECH Software Omniscient Code Generator (Lite mode) build 49521"
   689  07A9                     LCDDATA9 equ 07A9h ;# 
   690                           opt subtitle "HI-TECH Software Omniscient Code Generator (Lite mode) build 49521"
   691  07AA                     LCDDATA10 equ 07AAh ;# 
   692                           opt subtitle "HI-TECH Software Omniscient Code Generator (Lite mode) build 49521"
   693  07AB                     LCDDATA11 equ 07ABh ;# 
   694                           opt subtitle "HI-TECH Software Omniscient Code Generator (Lite mode) build 49521"
   695  0FE4                     STATUS_SHAD equ 0FE4h ;# 
   696                           opt subtitle "HI-TECH Software Omniscient Code Generator (Lite mode) build 49521"
   697  0FE5                     WREG_SHAD equ 0FE5h ;# 
   698                           opt subtitle "HI-TECH Software Omniscient Code Generator (Lite mode) build 49521"
   699  0FE6                     BSR_SHAD equ 0FE6h ;# 
   700                           opt subtitle "HI-TECH Software Omniscient Code Generator (Lite mode) build 49521"
   701  0FE7                     PCLATH_SHAD equ 0FE7h ;# 
   702                           opt subtitle "HI-TECH Software Omniscient Code Generator (Lite mode) build 49521"
   703  0FE8                     FSR0L_SHAD equ 0FE8h ;# 
   704                           opt subtitle "HI-TECH Software Omniscient Code Generator (Lite mode) build 49521"
   705  0FE9                     FSR0H_SHAD equ 0FE9h ;# 
   706                           opt subtitle "HI-TECH Software Omniscient Code Generator (Lite mode) build 49521"
   707  0FEA                     FSR1L_SHAD equ 0FEAh ;# 
   708                           opt subtitle "HI-TECH Software Omniscient Code Generator (Lite mode) build 49521"
   709  0FEB                     FSR1H_SHAD equ 0FEBh ;# 
   710                           opt subtitle "HI-TECH Software Omniscient Code Generator (Lite mode) build 49521"
   711  0FED                     STKPTR equ 0FEDh ;# 
   712                           opt subtitle "HI-TECH Software Omniscient Code Generator (Lite mode) build 49521"
   713  0FEE                     TOSL equ 0FEEh ;# 
   714                           opt subtitle "HI-TECH Software Omniscient Code Generator (Lite mode) build 49521"
   715  0FEF                     TOSH equ 0FEFh ;# 
   716                           opt subtitle "HI-TECH Software Omniscient Code Generator (Lite mode) build 49521"
   717  0000                     INDF0 equ 00h ;# 
   718                           opt subtitle "HI-TECH Software Omniscient Code Generator (Lite mode) build 49521"
   719  0001                     INDF1 equ 01h ;# 
   720                           opt subtitle "HI-TECH Software Omniscient Code Generator (Lite mode) build 49521"
   721  0002                     PCL equ 02h ;# 
   722                           opt subtitle "HI-TECH Software Omniscient Code Generator (Lite mode) build 49521"
   723  0003                     STATUS equ 03h ;# 
   724                           opt subtitle "HI-TECH Software Omniscient Code Generator (Lite mode) build 49521"
   725  0004                     FSR0L equ 04h ;# 
   726                           opt subtitle "HI-TECH Software Omniscient Code Generator (Lite mode) build 49521"
   727  0005                     FSR0H equ 05h ;# 
   728                           opt subtitle "HI-TECH Software Omniscient Code Generator (Lite mode) build 49521"
   729  0006                     FSR1L equ 06h ;# 
   730                           opt subtitle "HI-TECH Software Omniscient Code Generator (Lite mode) build 49521"
   731  0007                     FSR1H equ 07h ;# 
   732                           opt subtitle "HI-TECH Software Omniscient Code Generator (Lite mode) build 49521"
   733  0008                     BSR equ 08h ;# 
   734                           opt subtitle "HI-TECH Software Omniscient Code Generator (Lite mode) build 49521"
   735  0009                     WREG equ 09h ;# 
   736                           opt subtitle "HI-TECH Software Omniscient Code Generator (Lite mode) build 49521"
   737  000A                     PCLATH equ 0Ah ;# 
   738                           opt subtitle "HI-TECH Software Omniscient Code Generator (Lite mode) build 49521"
   739  000B                     INTCON equ 0Bh ;# 
   740                           opt subtitle "HI-TECH Software Omniscient Code Generator (Lite mode) build 49521"
   741  000C                     PORTA equ 0Ch ;# 
   742                           opt subtitle "HI-TECH Software Omniscient Code Generator (Lite mode) build 49521"
   743  000D                     PORTB equ 0Dh ;# 
   744                           opt subtitle "HI-TECH Software Omniscient Code Generator (Lite mode) build 49521"
   745  000E                     PORTC equ 0Eh ;# 
   746                           opt subtitle "HI-TECH Software Omniscient Code Generator (Lite mode) build 49521"
   747  000F                     PORTD equ 0Fh ;# 
   748                           opt subtitle "HI-TECH Software Omniscient Code Generator (Lite mode) build 49521"
   749  0010                     PORTE equ 010h ;# 
   750                           opt subtitle "HI-TECH Software Omniscient Code Generator (Lite mode) build 49521"
   751  0011                     PIR1 equ 011h ;# 
   752                           opt subtitle "HI-TECH Software Omniscient Code Generator (Lite mode) build 49521"
   753  0012                     PIR2 equ 012h ;# 
   754                           opt subtitle "HI-TECH Software Omniscient Code Generator (Lite mode) build 49521"
   755  0013                     PIR3 equ 013h ;# 
   756                           opt subtitle "HI-TECH Software Omniscient Code Generator (Lite mode) build 49521"
   757  0015                     TMR0 equ 015h ;# 
   758                           opt subtitle "HI-TECH Software Omniscient Code Generator (Lite mode) build 49521"
   759  0016                     TMR1 equ 016h ;# 
   760                           opt subtitle "HI-TECH Software Omniscient Code Generator (Lite mode) build 49521"
   761  0016                     TMR1L equ 016h ;# 
   762                           opt subtitle "HI-TECH Software Omniscient Code Generator (Lite mode) build 49521"
   763  0017                     TMR1H equ 017h ;# 
   764                           opt subtitle "HI-TECH Software Omniscient Code Generator (Lite mode) build 49521"
   765  0018                     T1CON equ 018h ;# 
   766                           opt subtitle "HI-TECH Software Omniscient Code Generator (Lite mode) build 49521"
   767  0019                     T1GCON equ 019h ;# 
   768                           opt subtitle "HI-TECH Software Omniscient Code Generator (Lite mode) build 49521"
   769  001A                     TMR2 equ 01Ah ;# 
   770                           opt subtitle "HI-TECH Software Omniscient Code Generator (Lite mode) build 49521"
   771  001B                     PR2 equ 01Bh ;# 
   772                           opt subtitle "HI-TECH Software Omniscient Code Generator (Lite mode) build 49521"
   773  001C                     T2CON equ 01Ch ;# 
   774                           opt subtitle "HI-TECH Software Omniscient Code Generator (Lite mode) build 49521"
   775  001E                     CPSCON0 equ 01Eh ;# 
   776                           opt subtitle "HI-TECH Software Omniscient Code Generator (Lite mode) build 49521"
   777  001F                     CPSCON1 equ 01Fh ;# 
   778                           opt subtitle "HI-TECH Software Omniscient Code Generator (Lite mode) build 49521"
   779  008C                     TRISA equ 08Ch ;# 
   780                           opt subtitle "HI-TECH Software Omniscient Code Generator (Lite mode) build 49521"
   781  008D                     TRISB equ 08Dh ;# 
   782                           opt subtitle "HI-TECH Software Omniscient Code Generator (Lite mode) build 49521"
   783  008E                     TRISC equ 08Eh ;# 
   784                           opt subtitle "HI-TECH Software Omniscient Code Generator (Lite mode) build 49521"
   785  008F                     TRISD equ 08Fh ;# 
   786                           opt subtitle "HI-TECH Software Omniscient Code Generator (Lite mode) build 49521"
   787  0090                     TRISE equ 090h ;# 
   788                           opt subtitle "HI-TECH Software Omniscient Code Generator (Lite mode) build 49521"
   789  0091                     PIE1 equ 091h ;# 
   790                           opt subtitle "HI-TECH Software Omniscient Code Generator (Lite mode) build 49521"
   791  0092                     PIE2 equ 092h ;# 
   792                           opt subtitle "HI-TECH Software Omniscient Code Generator (Lite mode) build 49521"
   793  0093                     PIE3 equ 093h ;# 
   794                           opt subtitle "HI-TECH Software Omniscient Code Generator (Lite mode) build 49521"
   795  0095                     OPTION_REG equ 095h ;# 
   796                           opt subtitle "HI-TECH Software Omniscient Code Generator (Lite mode) build 49521"
   797  0096                     PCON equ 096h ;# 
   798                           opt subtitle "HI-TECH Software Omniscient Code Generator (Lite mode) build 49521"
   799  0097                     WDTCON equ 097h ;# 
   800                           opt subtitle "HI-TECH Software Omniscient Code Generator (Lite mode) build 49521"
   801  0098                     OSCTUNE equ 098h ;# 
   802                           opt subtitle "HI-TECH Software Omniscient Code Generator (Lite mode) build 49521"
   803  0099                     OSCCON equ 099h ;# 
   804                           opt subtitle "HI-TECH Software Omniscient Code Generator (Lite mode) build 49521"
   805  009A                     OSCSTAT equ 09Ah ;# 
   806                           opt subtitle "HI-TECH Software Omniscient Code Generator (Lite mode) build 49521"
   807  009B                     ADRES equ 09Bh ;# 
   808                           opt subtitle "HI-TECH Software Omniscient Code Generator (Lite mode) build 49521"
   809  009B                     ADRESL equ 09Bh ;# 
   810                           opt subtitle "HI-TECH Software Omniscient Code Generator (Lite mode) build 49521"
   811  009C                     ADRESH equ 09Ch ;# 
   812                           opt subtitle "HI-TECH Software Omniscient Code Generator (Lite mode) build 49521"
   813  009D                     ADCON0 equ 09Dh ;# 
   814                           opt subtitle "HI-TECH Software Omniscient Code Generator (Lite mode) build 49521"
   815  009E                     ADCON1 equ 09Eh ;# 
   816                           opt subtitle "HI-TECH Software Omniscient Code Generator (Lite mode) build 49521"
   817  010C                     LATA equ 010Ch ;# 
   818                           opt subtitle "HI-TECH Software Omniscient Code Generator (Lite mode) build 49521"
   819  010D                     LATB equ 010Dh ;# 
   820                           opt subtitle "HI-TECH Software Omniscient Code Generator (Lite mode) build 49521"
   821  010E                     LATC equ 010Eh ;# 
   822                           opt subtitle "HI-TECH Software Omniscient Code Generator (Lite mode) build 49521"
   823  010F                     LATD equ 010Fh ;# 
   824                           opt subtitle "HI-TECH Software Omniscient Code Generator (Lite mode) build 49521"
   825  0110                     LATE equ 0110h ;# 
   826                           opt subtitle "HI-TECH Software Omniscient Code Generator (Lite mode) build 49521"
   827  0111                     CM1CON0 equ 0111h ;# 
   828                           opt subtitle "HI-TECH Software Omniscient Code Generator (Lite mode) build 49521"
   829  0112                     CM1CON1 equ 0112h ;# 
   830                           opt subtitle "HI-TECH Software Omniscient Code Generator (Lite mode) build 49521"
   831  0113                     CM2CON0 equ 0113h ;# 
   832                           opt subtitle "HI-TECH Software Omniscient Code Generator (Lite mode) build 49521"
   833  0114                     CM2CON1 equ 0114h ;# 
   834                           opt subtitle "HI-TECH Software Omniscient Code Generator (Lite mode) build 49521"
   835  0115                     CMOUT equ 0115h ;# 
   836                           opt subtitle "HI-TECH Software Omniscient Code Generator (Lite mode) build 49521"
   837  0116                     BORCON equ 0116h ;# 
   838                           opt subtitle "HI-TECH Software Omniscient Code Generator (Lite mode) build 49521"
   839  0117                     FVRCON equ 0117h ;# 
   840                           opt subtitle "HI-TECH Software Omniscient Code Generator (Lite mode) build 49521"
   841  0118                     DACCON0 equ 0118h ;# 
   842                           opt subtitle "HI-TECH Software Omniscient Code Generator (Lite mode) build 49521"
   843  0119                     DACCON1 equ 0119h ;# 
   844                           opt subtitle "HI-TECH Software Omniscient Code Generator (Lite mode) build 49521"
   845  011A                     SRCON0 equ 011Ah ;# 
   846                           opt subtitle "HI-TECH Software Omniscient Code Generator (Lite mode) build 49521"
   847  011B                     SRCON1 equ 011Bh ;# 
   848                           opt subtitle "HI-TECH Software Omniscient Code Generator (Lite mode) build 49521"
   849  011D                     APFCON equ 011Dh ;# 
   850                           opt subtitle "HI-TECH Software Omniscient Code Generator (Lite mode) build 49521"
   851  018C                     ANSELA equ 018Ch ;# 
   852                           opt subtitle "HI-TECH Software Omniscient Code Generator (Lite mode) build 49521"
   853  018D                     ANSELB equ 018Dh ;# 
   854                           opt subtitle "HI-TECH Software Omniscient Code Generator (Lite mode) build 49521"
   855  018F                     ANSELD equ 018Fh ;# 
   856                           opt subtitle "HI-TECH Software Omniscient Code Generator (Lite mode) build 49521"
   857  0190                     ANSELE equ 0190h ;# 
   858                           opt subtitle "HI-TECH Software Omniscient Code Generator (Lite mode) build 49521"
   859  0191                     EEADR equ 0191h ;# 
   860                           opt subtitle "HI-TECH Software Omniscient Code Generator (Lite mode) build 49521"
   861  0191                     EEADRL equ 0191h ;# 
   862                           opt subtitle "HI-TECH Software Omniscient Code Generator (Lite mode) build 49521"
   863  0192                     EEADRH equ 0192h ;# 
   864                           opt subtitle "HI-TECH Software Omniscient Code Generator (Lite mode) build 49521"
   865  0193                     EEDAT equ 0193h ;# 
   866                           opt subtitle "HI-TECH Software Omniscient Code Generator (Lite mode) build 49521"
   867  0193                     EEDATL equ 0193h ;# 
   868                           opt subtitle "HI-TECH Software Omniscient Code Generator (Lite mode) build 49521"
   869  0193                     EEDATA equ 0193h ;# 
   870                           opt subtitle "HI-TECH Software Omniscient Code Generator (Lite mode) build 49521"
   871  0194                     EEDATH equ 0194h ;# 
   872                           opt subtitle "HI-TECH Software Omniscient Code Generator (Lite mode) build 49521"
   873  0195                     EECON1 equ 0195h ;# 
   874                           opt subtitle "HI-TECH Software Omniscient Code Generator (Lite mode) build 49521"
   875  0196                     EECON2 equ 0196h ;# 
   876                           opt subtitle "HI-TECH Software Omniscient Code Generator (Lite mode) build 49521"
   877  0199                     RCREG equ 0199h ;# 
   878                           opt subtitle "HI-TECH Software Omniscient Code Generator (Lite mode) build 49521"
   879  019A                     TXREG equ 019Ah ;# 
   880                           opt subtitle "HI-TECH Software Omniscient Code Generator (Lite mode) build 49521"
   881  019B                     SPBRGL equ 019Bh ;# 
   882                           opt subtitle "HI-TECH Software Omniscient Code Generator (Lite mode) build 49521"
   883  019B                     SPBRG equ 019Bh ;# 
   884                           opt subtitle "HI-TECH Software Omniscient Code Generator (Lite mode) build 49521"
   885  019C                     SPBRGH equ 019Ch ;# 
   886                           opt subtitle "HI-TECH Software Omniscient Code Generator (Lite mode) build 49521"
   887  019D                     RCSTA equ 019Dh ;# 
   888                           opt subtitle "HI-TECH Software Omniscient Code Generator (Lite mode) build 49521"
   889  019E                     TXSTA equ 019Eh ;# 
   890                           opt subtitle "HI-TECH Software Omniscient Code Generator (Lite mode) build 49521"
   891  019F                     BAUDCON equ 019Fh ;# 
   892                           opt subtitle "HI-TECH Software Omniscient Code Generator (Lite mode) build 49521"
   893  020D                     WPUB equ 020Dh ;# 
   894                           opt subtitle "HI-TECH Software Omniscient Code Generator (Lite mode) build 49521"
   895  0210                     WPUE equ 0210h ;# 
   896                           opt subtitle "HI-TECH Software Omniscient Code Generator (Lite mode) build 49521"
   897  0211                     SSPBUF equ 0211h ;# 
   898                           opt subtitle "HI-TECH Software Omniscient Code Generator (Lite mode) build 49521"
   899  0212                     SSPADD equ 0212h ;# 
   900                           opt subtitle "HI-TECH Software Omniscient Code Generator (Lite mode) build 49521"
   901  0213                     SSPMSK equ 0213h ;# 
   902                           opt subtitle "HI-TECH Software Omniscient Code Generator (Lite mode) build 49521"
   903  0214                     SSPSTAT equ 0214h ;# 
   904                           opt subtitle "HI-TECH Software Omniscient Code Generator (Lite mode) build 49521"
   905  0215                     SSPCON1 equ 0215h ;# 
   906                           opt subtitle "HI-TECH Software Omniscient Code Generator (Lite mode) build 49521"
   907  0215                     SSPCON equ 0215h ;# 
   908                           opt subtitle "HI-TECH Software Omniscient Code Generator (Lite mode) build 49521"
   909  0216                     SSPCON2 equ 0216h ;# 
   910                           opt subtitle "HI-TECH Software Omniscient Code Generator (Lite mode) build 49521"
   911  0217                     SSPCON3 equ 0217h ;# 
   912                           opt subtitle "HI-TECH Software Omniscient Code Generator (Lite mode) build 49521"
   913  0291                     CCPR1L equ 0291h ;# 
   914                           opt subtitle "HI-TECH Software Omniscient Code Generator (Lite mode) build 49521"
   915  0292                     CCPR1H equ 0292h ;# 
   916                           opt subtitle "HI-TECH Software Omniscient Code Generator (Lite mode) build 49521"
   917  0293                     CCP1CON equ 0293h ;# 
   918                           opt subtitle "HI-TECH Software Omniscient Code Generator (Lite mode) build 49521"
   919  0294                     PWM1CON equ 0294h ;# 
   920                           opt subtitle "HI-TECH Software Omniscient Code Generator (Lite mode) build 49521"
   921  0295                     CCP1AS equ 0295h ;# 
   922                           opt subtitle "HI-TECH Software Omniscient Code Generator (Lite mode) build 49521"
   923  0295                     ECCP1AS equ 0295h ;# 
   924                           opt subtitle "HI-TECH Software Omniscient Code Generator (Lite mode) build 49521"
   925  0296                     PSTR1CON equ 0296h ;# 
   926                           opt subtitle "HI-TECH Software Omniscient Code Generator (Lite mode) build 49521"
   927  0298                     CCPR2L equ 0298h ;# 
   928                           opt subtitle "HI-TECH Software Omniscient Code Generator (Lite mode) build 49521"
   929  0299                     CCPR2H equ 0299h ;# 
   930                           opt subtitle "HI-TECH Software Omniscient Code Generator (Lite mode) build 49521"
   931  029A                     CCP2CON equ 029Ah ;# 
   932                           opt subtitle "HI-TECH Software Omniscient Code Generator (Lite mode) build 49521"
   933  029B                     PWM2CON equ 029Bh ;# 
   934                           opt subtitle "HI-TECH Software Omniscient Code Generator (Lite mode) build 49521"
   935  029C                     CCP2AS equ 029Ch ;# 
   936                           opt subtitle "HI-TECH Software Omniscient Code Generator (Lite mode) build 49521"
   937  029C                     ECCP2AS equ 029Ch ;# 
   938                           opt subtitle "HI-TECH Software Omniscient Code Generator (Lite mode) build 49521"
   939  029D                     PSTR2CON equ 029Dh ;# 
   940                           opt subtitle "HI-TECH Software Omniscient Code Generator (Lite mode) build 49521"
   941  029E                     CCPTMRS0 equ 029Eh ;# 
   942                           opt subtitle "HI-TECH Software Omniscient Code Generator (Lite mode) build 49521"
   943  029F                     CCPTMRS1 equ 029Fh ;# 
   944                           opt subtitle "HI-TECH Software Omniscient Code Generator (Lite mode) build 49521"
   945  0311                     CCPR3L equ 0311h ;# 
   946                           opt subtitle "HI-TECH Software Omniscient Code Generator (Lite mode) build 49521"
   947  0312                     CCPR3H equ 0312h ;# 
   948                           opt subtitle "HI-TECH Software Omniscient Code Generator (Lite mode) build 49521"
   949  0313                     CCP3CON equ 0313h ;# 
   950                           opt subtitle "HI-TECH Software Omniscient Code Generator (Lite mode) build 49521"
   951  0314                     PWM3CON equ 0314h ;# 
   952                           opt subtitle "HI-TECH Software Omniscient Code Generator (Lite mode) build 49521"
   953  0315                     CCP3AS equ 0315h ;# 
   954                           opt subtitle "HI-TECH Software Omniscient Code Generator (Lite mode) build 49521"
   955  0315                     ECCP3AS equ 0315h ;# 
   956                           opt subtitle "HI-TECH Software Omniscient Code Generator (Lite mode) build 49521"
   957  0316                     PSTR3CON equ 0316h ;# 
   958                           opt subtitle "HI-TECH Software Omniscient Code Generator (Lite mode) build 49521"
   959  0318                     CCPR4L equ 0318h ;# 
   960                           opt subtitle "HI-TECH Software Omniscient Code Generator (Lite mode) build 49521"
   961  0319                     CCPR4H equ 0319h ;# 
   962                           opt subtitle "HI-TECH Software Omniscient Code Generator (Lite mode) build 49521"
   963  031A                     CCP4CON equ 031Ah ;# 
   964                           opt subtitle "HI-TECH Software Omniscient Code Generator (Lite mode) build 49521"
   965  031C                     CCPR5L equ 031Ch ;# 
   966                           opt subtitle "HI-TECH Software Omniscient Code Generator (Lite mode) build 49521"
   967  031D                     CCPR5H equ 031Dh ;# 
   968                           opt subtitle "HI-TECH Software Omniscient Code Generator (Lite mode) build 49521"
   969  031E                     CCP5CON equ 031Eh ;# 
   970                           opt subtitle "HI-TECH Software Omniscient Code Generator (Lite mode) build 49521"
   971  0394                     IOCBP equ 0394h ;# 
   972                           opt subtitle "HI-TECH Software Omniscient Code Generator (Lite mode) build 49521"
   973  0395                     IOCBN equ 0395h ;# 
   974                           opt subtitle "HI-TECH Software Omniscient Code Generator (Lite mode) build 49521"
   975  0396                     IOCBF equ 0396h ;# 
   976                           opt subtitle "HI-TECH Software Omniscient Code Generator (Lite mode) build 49521"
   977  0415                     TMR4 equ 0415h ;# 
   978                           opt subtitle "HI-TECH Software Omniscient Code Generator (Lite mode) build 49521"
   979  0416                     PR4 equ 0416h ;# 
   980                           opt subtitle "HI-TECH Software Omniscient Code Generator (Lite mode) build 49521"
   981  0417                     T4CON equ 0417h ;# 
   982                           opt subtitle "HI-TECH Software Omniscient Code Generator (Lite mode) build 49521"
   983  041C                     TMR6 equ 041Ch ;# 
   984                           opt subtitle "HI-TECH Software Omniscient Code Generator (Lite mode) build 49521"
   985  041D                     PR6 equ 041Dh ;# 
   986                           opt subtitle "HI-TECH Software Omniscient Code Generator (Lite mode) build 49521"
   987  041E                     T6CON equ 041Eh ;# 
   988                           opt subtitle "HI-TECH Software Omniscient Code Generator (Lite mode) build 49521"
   989  0791                     LCDCON equ 0791h ;# 
   990                           opt subtitle "HI-TECH Software Omniscient Code Generator (Lite mode) build 49521"
   991  0792                     LCDPS equ 0792h ;# 
   992                           opt subtitle "HI-TECH Software Omniscient Code Generator (Lite mode) build 49521"
   993  0793                     LCDREF equ 0793h ;# 
   994                           opt subtitle "HI-TECH Software Omniscient Code Generator (Lite mode) build 49521"
   995  0794                     LCDCST equ 0794h ;# 
   996                           opt subtitle "HI-TECH Software Omniscient Code Generator (Lite mode) build 49521"
   997  0795                     LCDRL equ 0795h ;# 
   998                           opt subtitle "HI-TECH Software Omniscient Code Generator (Lite mode) build 49521"
   999  0798                     LCDSE0 equ 0798h ;# 
  1000                           opt subtitle "HI-TECH Software Omniscient Code Generator (Lite mode) build 49521"
  1001  0799                     LCDSE1 equ 0799h ;# 
  1002                           opt subtitle "HI-TECH Software Omniscient Code Generator (Lite mode) build 49521"
  1003  079A                     LCDSE2 equ 079Ah ;# 
  1004                           opt subtitle "HI-TECH Software Omniscient Code Generator (Lite mode) build 49521"
  1005  07A0                     LCDDATA0 equ 07A0h ;# 
  1006                           opt subtitle "HI-TECH Software Omniscient Code Generator (Lite mode) build 49521"
  1007  07A1                     LCDDATA1 equ 07A1h ;# 
  1008                           opt subtitle "HI-TECH Software Omniscient Code Generator (Lite mode) build 49521"
  1009  07A2                     LCDDATA2 equ 07A2h ;# 
  1010                           opt subtitle "HI-TECH Software Omniscient Code Generator (Lite mode) build 49521"
  1011  07A3                     LCDDATA3 equ 07A3h ;# 
  1012                           opt subtitle "HI-TECH Software Omniscient Code Generator (Lite mode) build 49521"
  1013  07A4                     LCDDATA4 equ 07A4h ;# 
  1014                           opt subtitle "HI-TECH Software Omniscient Code Generator (Lite mode) build 49521"
  1015  07A5                     LCDDATA5 equ 07A5h ;# 
  1016                           opt subtitle "HI-TECH Software Omniscient Code Generator (Lite mode) build 49521"
  1017  07A6                     LCDDATA6 equ 07A6h ;# 
  1018                           opt subtitle "HI-TECH Software Omniscient Code Generator (Lite mode) build 49521"
  1019  07A7                     LCDDATA7 equ 07A7h ;# 
  1020                           opt subtitle "HI-TECH Software Omniscient Code Generator (Lite mode) build 49521"
  1021  07A8                     LCDDATA8 equ 07A8h ;# 
  1022                           opt subtitle "HI-TECH Software Omniscient Code Generator (Lite mode) build 49521"
  1023  07A9                     LCDDATA9 equ 07A9h ;# 
  1024                           opt subtitle "HI-TECH Software Omniscient Code Generator (Lite mode) build 49521"
  1025  07AA                     LCDDATA10 equ 07AAh ;# 
  1026                           opt subtitle "HI-TECH Software Omniscient Code Generator (Lite mode) build 49521"
  1027  07AB                     LCDDATA11 equ 07ABh ;# 
  1028                           opt subtitle "HI-TECH Software Omniscient Code Generator (Lite mode) build 49521"
  1029  0FE4                     STATUS_SHAD equ 0FE4h ;# 
  1030                           opt subtitle "HI-TECH Software Omniscient Code Generator (Lite mode) build 49521"
  1031  0FE5                     WREG_SHAD equ 0FE5h ;# 
  1032                           opt subtitle "HI-TECH Software Omniscient Code Generator (Lite mode) build 49521"
  1033  0FE6                     BSR_SHAD equ 0FE6h ;# 
  1034                           opt subtitle "HI-TECH Software Omniscient Code Generator (Lite mode) build 49521"
  1035  0FE7                     PCLATH_SHAD equ 0FE7h ;# 
  1036                           opt subtitle "HI-TECH Software Omniscient Code Generator (Lite mode) build 49521"
  1037  0FE8                     FSR0L_SHAD equ 0FE8h ;# 
  1038                           opt subtitle "HI-TECH Software Omniscient Code Generator (Lite mode) build 49521"
  1039  0FE9                     FSR0H_SHAD equ 0FE9h ;# 
  1040                           opt subtitle "HI-TECH Software Omniscient Code Generator (Lite mode) build 49521"
  1041  0FEA                     FSR1L_SHAD equ 0FEAh ;# 
  1042                           opt subtitle "HI-TECH Software Omniscient Code Generator (Lite mode) build 49521"
  1043  0FEB                     FSR1H_SHAD equ 0FEBh ;# 
  1044                           opt subtitle "HI-TECH Software Omniscient Code Generator (Lite mode) build 49521"
  1045  0FED                     STKPTR equ 0FEDh ;# 
  1046                           opt subtitle "HI-TECH Software Omniscient Code Generator (Lite mode) build 49521"
  1047  0FEE                     TOSL equ 0FEEh ;# 
  1048                           opt subtitle "HI-TECH Software Omniscient Code Generator (Lite mode) build 49521"
  1049  0FEF                     TOSH equ 0FEFh ;# 
  1050                           opt subtitle "HI-TECH Software Omniscient Code Generator (Lite mode) build 49521"
  1051                           
  1052                           opt pagewidth 120
  1053                           
  1054                           	opt lm
  1055                           
  1056                           	processor	16F1937
  1057                           clrc	macro
  1058                           	bcf	3,0
  1059                           	endm
  1060                           clrz	macro
  1061                           	bcf	3,2
  1062                           	endm
  1063                           setc	macro
  1064                           	bsf	3,0
  1065                           	endm
  1066                           setz	macro
  1067                           	bsf	3,2
  1068                           	endm
  1069                           skipc	macro
  1070                           	btfss	3,0
  1071                           	endm
  1072                           skipz	macro
  1073                           	btfss	3,2
  1074                           	endm
  1075                           skipnc	macro
  1076                           	btfsc	3,0
  1077  073D                     __pidataBANK0:
  1078                           opt subtitle "HI-TECH Software Omniscient Code Generator (Lite mode) build 49521"
  1079                           
  1080                           opt pagewidth 120
  1081                           
  1082  073D  3432               	retlw	032h
  1083  073E  3400               	retlw	0
  1084                           opt subtitle "HI-TECH Software Omniscient Code Generator (Lite mode) build 49521"
  1085                           
  1086                           opt pagewidth 120
  1087                           
  1088  073F  3400               	retlw	0
  1089  0740  3402               	retlw	02h
  1090                           opt subtitle "HI-TECH Software Omniscient Code Generator (Lite mode) build 49521"
  1091                           
  1092                           opt pagewidth 120
  1093                           
  1094  0741  3400               	retlw	0
  1095  0742  3402               	retlw	02h
  1096                           opt subtitle "HI-TECH Software Omniscient Code Generator (Lite mode) build 49521"
  1097                           
  1098                           opt pagewidth 120
  1099                           
  1100  0743  3400               	retlw	0
  1101  0744  3402               	retlw	02h
  1102                           opt subtitle "HI-TECH Software Omniscient Code Generator (Lite mode) build 49521"
  1103                           
  1104                           opt pagewidth 120
  1105                           
  1106  0745  3400               	retlw	0
  1107  0746  3402               	retlw	02h
  1108                           opt subtitle "HI-TECH Software Omniscient Code Generator (Lite mode) build 49521"
  1109                           
  1110                           opt pagewidth 120
  1111                           
  1112  0747  3432               	retlw	032h
  1113  0748  3400               	retlw	0
  1114                           opt subtitle "HI-TECH Software Omniscient Code Generator (Lite mode) build 49521"
  1115                           
  1116                           opt pagewidth 120
  1117                           
  1118  0749  34C0               	retlw	0C0h
  1119                           opt subtitle "HI-TECH Software Omniscient Code Generator (Lite mode) build 49521"
  1120                           
  1121                           opt pagewidth 120
  1122  0561                     __pstrings:
  1123                           opt subtitle "HI-TECH Software Omniscient Code Generator (Lite mode) build 49521"
  1124  0561                     __stringtab:
  1125  0561  3400               	retlw	0
  1126                           opt subtitle "HI-TECH Software Omniscient Code Generator (Lite mode) build 49521"
  1127                           
  1128  0562                     __end_of__stringtab:
  1129                           opt subtitle "HI-TECH Software Omniscient Code Generator (Lite mode) build 49521"
  1130                           
  1131  0562                     _dpowers:
  1132  0562  3401               	retlw	01h
  1133  0563  3400               	retlw	0
  1134                           opt subtitle "HI-TECH Software Omniscient Code Generator (Lite mode) build 49521"
  1135  0564  340A               	retlw	0Ah
  1136  0565  3400               	retlw	0
  1137                           opt subtitle "HI-TECH Software Omniscient Code Generator (Lite mode) build 49521"
  1138  0566  3464               	retlw	064h
  1139  0567  3400               	retlw	0
  1140                           opt subtitle "HI-TECH Software Omniscient Code Generator (Lite mode) build 49521"
  1141  0568  34E8               	retlw	0E8h
  1142  0569  3403               	retlw	03h
  1143                           opt subtitle "HI-TECH Software Omniscient Code Generator (Lite mode) build 49521"
  1144  056A  3410               	retlw	010h
  1145  056B  3427               	retlw	027h
  1146                           opt subtitle "HI-TECH Software Omniscient Code Generator (Lite mode) build 49521"
  1147                           
  1148  056C                     __end_of_dpowers:
  1149                           opt subtitle "HI-TECH Software Omniscient Code Generator (Lite mode) build 49521"
  1150                           
  1151                           opt pagewidth 120
  1152                           
  1153                           	opt lm
  1154                           
  1155  000B                     _INTCONbits	set	0xB
  1156                           opt subtitle "HI-TECH Software Omniscient Code Generator (Lite mode) build 49521"
  1157  000F                     _PORTDbits	set	0xF
  1158                           opt subtitle "HI-TECH Software Omniscient Code Generator (Lite mode) build 49521"
  1159  008D                     _RCIF	set	0x8D
  1160                           opt subtitle "HI-TECH Software Omniscient Code Generator (Lite mode) build 49521"
  1161  008C                     _TXIF	set	0x8C
  1162                           opt subtitle "HI-TECH Software Omniscient Code Generator (Lite mode) build 49521"
  1163  009D                     _ADCON0bits	set	0x9D
  1164                           opt subtitle "HI-TECH Software Omniscient Code Generator (Lite mode) build 49521"
  1165  009E                     _ADCON1bits	set	0x9E
  1166                           opt subtitle "HI-TECH Software Omniscient Code Generator (Lite mode) build 49521"
  1167  009C                     _ADRESH	set	0x9C
  1168                           opt subtitle "HI-TECH Software Omniscient Code Generator (Lite mode) build 49521"
  1169  009B                     _ADRESL	set	0x9B
  1170                           opt subtitle "HI-TECH Software Omniscient Code Generator (Lite mode) build 49521"
  1171  0099                     _OSCCONbits	set	0x99
  1172                           opt subtitle "HI-TECH Software Omniscient Code Generator (Lite mode) build 49521"
  1173  008C                     _TRISAbits	set	0x8C
  1174                           opt subtitle "HI-TECH Software Omniscient Code Generator (Lite mode) build 49521"
  1175  008E                     _TRISC	set	0x8E
  1176                           opt subtitle "HI-TECH Software Omniscient Code Generator (Lite mode) build 49521"
  1177  008E                     _TRISCbits	set	0x8E
  1178                           opt subtitle "HI-TECH Software Omniscient Code Generator (Lite mode) build 49521"
  1179  008F                     _TRISDbits	set	0x8F
  1180                           opt subtitle "HI-TECH Software Omniscient Code Generator (Lite mode) build 49521"
  1181  0090                     _TRISEbits	set	0x90
  1182                           opt subtitle "HI-TECH Software Omniscient Code Generator (Lite mode) build 49521"
  1183  0476                     _TRISC6	set	0x476
  1184                           opt subtitle "HI-TECH Software Omniscient Code Generator (Lite mode) build 49521"
  1185  0477                     _TRISC7	set	0x477
  1186                           opt subtitle "HI-TECH Software Omniscient Code Generator (Lite mode) build 49521"
  1187  010E                     _LATC	set	0x10E
  1188                           opt subtitle "HI-TECH Software Omniscient Code Generator (Lite mode) build 49521"
  1189  010E                     _LATCbits	set	0x10E
  1190                           opt subtitle "HI-TECH Software Omniscient Code Generator (Lite mode) build 49521"
  1191  010F                     _LATDbits	set	0x10F
  1192                           opt subtitle "HI-TECH Software Omniscient Code Generator (Lite mode) build 49521"
  1193  018C                     _ANSELAbits	set	0x18C
  1194                           opt subtitle "HI-TECH Software Omniscient Code Generator (Lite mode) build 49521"
  1195  018F                     _ANSELDbits	set	0x18F
  1196                           opt subtitle "HI-TECH Software Omniscient Code Generator (Lite mode) build 49521"
  1197  0190                     _ANSELEbits	set	0x190
  1198                           opt subtitle "HI-TECH Software Omniscient Code Generator (Lite mode) build 49521"
  1199  0199                     _RCREG	set	0x199
  1200                           opt subtitle "HI-TECH Software Omniscient Code Generator (Lite mode) build 49521"
  1201  019D                     _RCSTA	set	0x19D
  1202                           opt subtitle "HI-TECH Software Omniscient Code Generator (Lite mode) build 49521"
  1203  019B                     _SPBRG	set	0x19B
  1204                           opt subtitle "HI-TECH Software Omniscient Code Generator (Lite mode) build 49521"
  1205  019A                     _TXREG	set	0x19A
  1206                           opt subtitle "HI-TECH Software Omniscient Code Generator (Lite mode) build 49521"
  1207  019E                     _TXSTA	set	0x19E
  1208                           opt subtitle "HI-TECH Software Omniscient Code Generator (Lite mode) build 49521"
  1209  056C                     __stringdata:
  1210                           opt subtitle "HI-TECH Software Omniscient Code Generator (Lite mode) build 49521"
  1211  056C                     STR_2:	
  1212  056C  3446               	retlw	70	;'F'
  1213  056D  344C               	retlw	76	;'L'
  1214  056E  343D               	retlw	61	;'='
  1215  056F  3420               	retlw	32	;' '
  1216  0570  3425               	retlw	37	;'%'
  1217  0571  3434               	retlw	52	;'4'
  1218  0572  3464               	retlw	100	;'d'
  1219  0573  3420               	retlw	32	;' '
  1220  0574  3420               	retlw	32	;' '
  1221  0575  3446               	retlw	70	;'F'
  1222  0576  3452               	retlw	82	;'R'
  1223  0577  343D               	retlw	61	;'='
  1224  0578  3420               	retlw	32	;' '
  1225  0579  3425               	retlw	37	;'%'
  1226  057A  3434               	retlw	52	;'4'
  1227  057B  3464               	retlw	100	;'d'
  1228  057C  3420               	retlw	32	;' '
  1229  057D  3420               	retlw	32	;' '
  1230  057E  3442               	retlw	66	;'B'
  1231  057F  344C               	retlw	76	;'L'
  1232  0580  343D               	retlw	61	;'='
  1233  0581  3420               	retlw	32	;' '
  1234  0582  3425               	retlw	37	;'%'
  1235  0583  3434               	retlw	52	;'4'
  1236  0584  3464               	retlw	100	;'d'
  1237  0585  3420               	retlw	32	;' '
  1238  0586  3420               	retlw	32	;' '
  1239  0587  3442               	retlw	66	;'B'
  1240  0588  3452               	retlw	82	;'R'
  1241  0589  343D               	retlw	61	;'='
  1242  058A  3420               	retlw	32	;' '
  1243  058B  3425               	retlw	37	;'%'
  1244  058C  3434               	retlw	52	;'4'
  1245  058D  3464               	retlw	100	;'d'
  1246  058E  3420               	retlw	32	;' '
  1247  058F  3420               	retlw	32	;' '
  1248  0590  344F               	retlw	79	;'O'
  1249  0591  3450               	retlw	80	;'P'
  1250  0592  345F               	retlw	95	;'_'
  1251  0593  3446               	retlw	70	;'F'
  1252  0594  344C               	retlw	76	;'L'
  1253  0595  343D               	retlw	61	;'='
  1254  0596  3420               	retlw	32	;' '
  1255  0597  3425               	retlw	37	;'%'
  1256  0598  3434               	retlw	52	;'4'
  1257  0599  3464               	retlw	100	;'d'
  1258  059A  3420               	retlw	32	;' '
  1259  059B  3420               	retlw	32	;' '
  1260  059C  344F               	retlw	79	;'O'
  1261  059D  3450               	retlw	80	;'P'
  1262  059E  345F               	retlw	95	;'_'
  1263  059F  3446               	retlw	70	;'F'
  1264  05A0  3452               	retlw	82	;'R'
  1265  05A1  343D               	retlw	61	;'='
  1266  05A2  3420               	retlw	32	;' '
  1267  05A3  3425               	retlw	37	;'%'
  1268  05A4  3434               	retlw	52	;'4'
  1269  05A5  3464               	retlw	100	;'d'
  1270  05A6  340D               	retlw	13
  1271  05A7  340A               	retlw	10
  1272  05A8  3400               	retlw	0
  1273                           opt subtitle "HI-TECH Software Omniscient Code Generator (Lite mode) build 49521"
  1274                           
  1275  05A9                     STR_1:	
  1276  05A9  3452               	retlw	82	;'R'
  1277  05AA  346F               	retlw	111	;'o'
  1278  05AB  3462               	retlw	98	;'b'
  1279  05AC  346F               	retlw	111	;'o'
  1280  05AD  3474               	retlw	116	;'t'
  1281  05AE  3420               	retlw	32	;' '
  1282  05AF  3464               	retlw	100	;'d'
  1283  05B0  3465               	retlw	101	;'e'
  1284  05B1  3420               	retlw	32	;' '
  1285  05B2  3453               	retlw	83	;'S'
  1286  05B3  3475               	retlw	117	;'u'
  1287  05B4  346D               	retlw	109	;'m'
  1288  05B5  346F               	retlw	111	;'o'
  1289  05B6  3420               	retlw	32	;' '
  1290  05B7  3454               	retlw	84	;'T'
  1291  05B8  3468               	retlw	104	;'h'
  1292  05B9  346F               	retlw	111	;'o'
  1293  05BA  3472               	retlw	114	;'r'
  1294  05BB  3420               	retlw	32	;' '
  1295  05BC  342D               	retlw	45	;'-'
  1296  05BD  3420               	retlw	32	;' '
  1297  05BE  3447               	retlw	71	;'G'
  1298  05BF  3461               	retlw	97	;'a'
  1299  05C0  3472               	retlw	114	;'r'
  1300  05C1  3479               	retlw	121	;'y'
  1301  05C2  3420               	retlw	32	;' '
  1302  05C3  3453               	retlw	83	;'S'
  1303  05C4  3465               	retlw	101	;'e'
  1304  05C5  3472               	retlw	114	;'r'
  1305  05C6  3476               	retlw	118	;'v'
  1306  05C7  3469               	retlw	105	;'i'
  1307  05C8  346E               	retlw	110	;'n'
  1308  05C9  3420               	retlw	32	;' '
  1309  05CA  3432               	retlw	50	;'2'
  1310  05CB  3430               	retlw	48	;'0'
  1311  05CC  3431               	retlw	49	;'1'
  1312  05CD  3432               	retlw	50	;'2'
  1313  05CE  340D               	retlw	13
  1314  05CF  340A               	retlw	10
  1315  05D0  3400               	retlw	0
  1316                           opt subtitle "HI-TECH Software Omniscient Code Generator (Lite mode) build 49521"
  1317                           
  1318  05D1                     __end_of__stringdata:
  1319                           opt subtitle "HI-TECH Software Omniscient Code Generator (Lite mode) build 49521"
  1320                           
  1321  0000                     __CFG_CPD$OFF equ 0x0
  1322                           opt subtitle "HI-TECH Software Omniscient Code Generator (Lite mode) build 49521"
  1323  0000                     __CFG_BOREN$OFF equ 0x0
  1324                           opt subtitle "HI-TECH Software Omniscient Code Generator (Lite mode) build 49521"
  1325  0000                     __CFG_IESO$OFF equ 0x0
  1326                           opt subtitle "HI-TECH Software Omniscient Code Generator (Lite mode) build 49521"
  1327  0000                     __CFG_FOSC$INTOSC equ 0x0
  1328                           opt subtitle "HI-TECH Software Omniscient Code Generator (Lite mode) build 49521"
  1329  0000                     __CFG_FCMEN$OFF equ 0x0
  1330                           opt subtitle "HI-TECH Software Omniscient Code Generator (Lite mode) build 49521"
  1331  0000                     __CFG_MCLRE$ON equ 0x0
  1332                           opt subtitle "HI-TECH Software Omniscient Code Generator (Lite mode) build 49521"
  1333  0000                     __CFG_WDTE$OFF equ 0x0
  1334                           opt subtitle "HI-TECH Software Omniscient Code Generator (Lite mode) build 49521"
  1335  0000                     __CFG_CP$OFF equ 0x0
  1336                           opt subtitle "HI-TECH Software Omniscient Code Generator (Lite mode) build 49521"
  1337  0000                     __CFG_PWRTE$OFF equ 0x0
  1338                           opt subtitle "HI-TECH Software Omniscient Code Generator (Lite mode) build 49521"
  1339  0000                     __CFG_CLKOUTEN$OFF equ 0x0
  1340                           opt subtitle "HI-TECH Software Omniscient Code Generator (Lite mode) build 49521"
  1341  0000                     __CFG_PLLEN$OFF equ 0x0
  1342                           opt subtitle "HI-TECH Software Omniscient Code Generator (Lite mode) build 49521"
  1343  0000                     __CFG_WRT$OFF equ 0x0
  1344                           opt subtitle "HI-TECH Software Omniscient Code Generator (Lite mode) build 49521"
  1345  0000                     __CFG_STVREN$OFF equ 0x0
  1346                           opt subtitle "HI-TECH Software Omniscient Code Generator (Lite mode) build 49521"
  1347  0000                     __CFG_BORV$LO equ 0x0
  1348                           opt subtitle "HI-TECH Software Omniscient Code Generator (Lite mode) build 49521"
  1349  0000                     __CFG_VCAPEN$OFF equ 0x0
  1350                           opt subtitle "HI-TECH Software Omniscient Code Generator (Lite mode) build 49521"
  1351  0000                     __CFG_LVP$OFF equ 0x0
  1352                           opt subtitle "HI-TECH Software Omniscient Code Generator (Lite mode) build 49521"
  1353                           
  1354                           opt pagewidth 120
  1355                           
  1356  0714                     start_initialization:
  1357                           opt subtitle "HI-TECH Software Omniscient Code Generator (Lite mode) build 49521"
  1358                           
  1359  0714                     __initialization:
  1360                           opt subtitle "HI-TECH Software Omniscient Code Generator (Lite mode) build 49521"
  1361                           
  1362  03E0                     __pbitbssCOMMON:
  1363  03E0                     _isDebug:
  1364  03E0                            ds      1
  1365                           opt subtitle "HI-TECH Software Omniscient Code Generator (Lite mode) build 49521"
  1366                           
  1367                           opt pagewidth 120
  1368  005B                     __pbssBANK0:
  1369  005B                     _rangeAverage:
  1370  005B                            ds      2
  1371                           opt subtitle "HI-TECH Software Omniscient Code Generator (Lite mode) build 49521"
  1372  005D                     _rangeDifference:
  1373  005D                            ds      2
  1374                           opt subtitle "HI-TECH Software Omniscient Code Generator (Lite mode) build 49521"
  1375  005F                     _i:
  1376  005F                            ds      1
  1377                           opt subtitle "HI-TECH Software Omniscient Code Generator (Lite mode) build 49521"
  1378                           
  1379                           opt pagewidth 120
  1380  004E                     __pdataBANK0:
  1381                           opt subtitle "HI-TECH Software Omniscient Code Generator (Lite mode) build 49521"
  1382                           
  1383  004E                     _mAttackThreshold:
  1384  004E                            ds      2
  1385                           opt subtitle "HI-TECH Software Omniscient Code Generator (Lite mode) build 49521"
  1386                           
  1387                           opt pagewidth 120
  1388                           
  1389  0050                     _mEdgeBackLeftThreshold:
  1390  0050                            ds      2
  1391                           opt subtitle "HI-TECH Software Omniscient Code Generator (Lite mode) build 49521"
  1392                           
  1393                           opt pagewidth 120
  1394                           
  1395  0052                     _mEdgeBackRightThreshold:
  1396  0052                            ds      2
  1397                           opt subtitle "HI-TECH Software Omniscient Code Generator (Lite mode) build 49521"
  1398                           
  1399                           opt pagewidth 120
  1400                           
  1401  0054                     _mEdgeFrontLeftThreshold:
  1402  0054                            ds      2
  1403                           opt subtitle "HI-TECH Software Omniscient Code Generator (Lite mode) build 49521"
  1404                           
  1405                           opt pagewidth 120
  1406                           
  1407  0056                     _mEdgeFrontRightThreshold:
  1408  0056                            ds      2
  1409                           opt subtitle "HI-TECH Software Omniscient Code Generator (Lite mode) build 49521"
  1410                           
  1411                           opt pagewidth 120
  1412                           
  1413  0058                     _mTargetThreshold:
  1414  0058                            ds      2
  1415                           opt subtitle "HI-TECH Software Omniscient Code Generator (Lite mode) build 49521"
  1416                           
  1417                           opt pagewidth 120
  1418                           
  1419  005A                     _Sumo:
  1420  005A                            ds      1
  1421                           opt subtitle "HI-TECH Software Omniscient Code Generator (Lite mode) build 49521"
  1422                           
  1423                           opt pagewidth 120
  1424                           
  1425  0714  01FC               	clrf	((__pbitbssCOMMON/8)+0)&07Fh
  1426                           opt subtitle "HI-TECH Software Omniscient Code Generator (Lite mode) build 49521"
  1427                           
  1428                           opt pagewidth 120
  1429  0715  01DB               	clrf	((__pbssBANK0)+0)&07Fh
  1430  0716  01DC               	clrf	((__pbssBANK0)+1)&07Fh
  1431  0717  01DD               	clrf	((__pbssBANK0)+2)&07Fh
  1432  0718  01DE               	clrf	((__pbssBANK0)+3)&07Fh
  1433  0719  01DF               	clrf	((__pbssBANK0)+4)&07Fh
  1434                           opt subtitle "HI-TECH Software Omniscient Code Generator (Lite mode) build 49521"
  1435                           
  1436  0763                     init_ram:
  1437  0763  00FE               	movwf btemp,f
  1438  0764                     initloop:
  1439  0764  0012               	moviw fsr0++
  1440  0765  001E               	movwi fsr1++
  1441  0766  0BFE               	decfsz btemp
  1442  0767  2F64               	goto initloop
  1443  0768  3400               	retlw 0
  1444                           opt subtitle "HI-TECH Software Omniscient Code Generator (Lite mode) build 49521"
  1445                           
  1446                           opt pagewidth 120
  1447  071A  303D               	movlw low(__pidataBANK0)
  1448  071B  0084               	movwf fsr0l
  1449  071C  3087               	movlw high(__pidataBANK0)|80h
  1450  071D  0085               	movwf fsr0h
  1451  071E  304E               	movlw low(__pdataBANK0)
  1452  071F  0086               	movwf fsr1l
  1453  0720  3000               	movlw high(__pdataBANK0)
  1454  0721  0087               	movwf fsr1h
  1455  0722  300D               	movlw 0Dh
  1456  0723  3187  2763  3187   	fcall init_ram
  1457                           opt subtitle "HI-TECH Software Omniscient Code Generator (Lite mode) build 49521"
  1458                           
  1459                           opt pagewidth 120
  1460                           
  1461                           	opt lm
  1462  0726                     end_of_initialization:
  1463  0726                     __end_of__initialization:movlb 0
      + 0726  0020               	movlb	0
  1464  0727  3180  280D         ljmp _main	;jump to C main() function
  1465                           opt subtitle "HI-TECH Software Omniscient Code Generator (Lite mode) build 49521"
  1466                           
  1467  0070                     __pcstackCOMMON:
  1468  0070                     ?_init_sumo:	; 0 bytes @ 0x0
  1469  0070                     ?_get_sensors:	; 0 bytes @ 0x0
  1470  0070                     ?_sumo_move:	; 0 bytes @ 0x0
  1471  0070                     ?_isdigit:	; 1 bit 
  1472  0070                     ?_OpenADC:	; 0 bytes @ 0x0
  1473  0070                     ?_main:	; 0 bytes @ 0x0
  1474  0070                     ?_IRS:	; 0 bytes @ 0x0
  1475  0070                     ??_IRS:	; 0 bytes @ 0x0
  1476  0070                     ?_putch:	; 0 bytes @ 0x0
  1477  0070                     	ds	1
  1478                           opt subtitle "HI-TECH Software Omniscient Code Generator (Lite mode) build 49521"
  1479  0071                     ?_delay_ms:	; 0 bytes @ 0x1
  1480                           opt subtitle "HI-TECH Software Omniscient Code Generator (Lite mode) build 49521"
  1481  0071                     ?_delay_s:	; 0 bytes @ 0x1
  1482  0071                     ??_sumo_move:	; 0 bytes @ 0x1
  1483  0071                     ??_isdigit:	; 0 bytes @ 0x1
  1484  0071                     ??_OpenADC:	; 0 bytes @ 0x1
  1485  0071                     ??_putch:	; 0 bytes @ 0x1
  1486                           opt subtitle "HI-TECH Software Omniscient Code Generator (Lite mode) build 49521"
  1487  0071                     ?_ReadADC:	; 2 bytes @ 0x1
  1488                           opt subtitle "HI-TECH Software Omniscient Code Generator (Lite mode) build 49521"
  1489  0071                     ?___wmul:	; 2 bytes @ 0x1
  1490                           opt subtitle "HI-TECH Software Omniscient Code Generator (Lite mode) build 49521"
  1491  0071                     ?___lwdiv:	; 2 bytes @ 0x1
  1492                           opt subtitle "HI-TECH Software Omniscient Code Generator (Lite mode) build 49521"
  1493  0071                     sumo_move@direction:	; 1 bytes @ 0x1
  1494                           opt subtitle "HI-TECH Software Omniscient Code Generator (Lite mode) build 49521"
  1495  0071                     putch@byte:	; 1 bytes @ 0x1
  1496                           opt subtitle "HI-TECH Software Omniscient Code Generator (Lite mode) build 49521"
  1497  0071                     _isdigit$1104:	; 1 bytes @ 0x1
  1498                           opt subtitle "HI-TECH Software Omniscient Code Generator (Lite mode) build 49521"
  1499  0071                     delay_ms@miliseconds:	; 2 bytes @ 0x1
  1500                           opt subtitle "HI-TECH Software Omniscient Code Generator (Lite mode) build 49521"
  1501  0071                     delay_s@seconds:	; 2 bytes @ 0x1
  1502                           opt subtitle "HI-TECH Software Omniscient Code Generator (Lite mode) build 49521"
  1503  0071                     ___wmul@multiplier:	; 2 bytes @ 0x1
  1504                           opt subtitle "HI-TECH Software Omniscient Code Generator (Lite mode) build 49521"
  1505  0071                     ___lwdiv@divisor:	; 2 bytes @ 0x1
  1506  0071                     	ds	1
  1507                           opt subtitle "HI-TECH Software Omniscient Code Generator (Lite mode) build 49521"
  1508  0072                     isdigit@c:	; 1 bytes @ 0x2
  1509  0072                     	ds	1
  1510  0073                     ??_delay_ms:	; 0 bytes @ 0x3
  1511  0073                     ??_delay_s:	; 0 bytes @ 0x3
  1512  0073                     ??_ReadADC:	; 0 bytes @ 0x3
  1513                           opt subtitle "HI-TECH Software Omniscient Code Generator (Lite mode) build 49521"
  1514  0073                     ___wmul@multiplicand:	; 2 bytes @ 0x3
  1515                           opt subtitle "HI-TECH Software Omniscient Code Generator (Lite mode) build 49521"
  1516  0073                     ___lwdiv@dividend:	; 2 bytes @ 0x3
  1517  0073                     	ds	1
  1518                           opt subtitle "HI-TECH Software Omniscient Code Generator (Lite mode) build 49521"
  1519  0074                     ReadADC@channel:	; 1 bytes @ 0x4
  1520  0074                     	ds	1
  1521  0075                     ??___wmul:	; 0 bytes @ 0x5
  1522  0075                     ??___lwdiv:	; 0 bytes @ 0x5
  1523                           opt subtitle "HI-TECH Software Omniscient Code Generator (Lite mode) build 49521"
  1524  0075                     delay_ms@temp:	; 1 bytes @ 0x5
  1525                           opt subtitle "HI-TECH Software Omniscient Code Generator (Lite mode) build 49521"
  1526  0075                     ReadADC@result:	; 2 bytes @ 0x5
  1527                           opt subtitle "HI-TECH Software Omniscient Code Generator (Lite mode) build 49521"
  1528  0075                     ___wmul@product:	; 2 bytes @ 0x5
  1529  0075                     	ds	1
  1530                           opt subtitle "HI-TECH Software Omniscient Code Generator (Lite mode) build 49521"
  1531  0076                     delay_s@temp:	; 1 bytes @ 0x6
  1532                           opt subtitle "HI-TECH Software Omniscient Code Generator (Lite mode) build 49521"
  1533  0076                     ___lwdiv@quotient:	; 2 bytes @ 0x6
  1534  0076                     	ds	2
  1535                           opt subtitle "HI-TECH Software Omniscient Code Generator (Lite mode) build 49521"
  1536  0078                     ___lwdiv@counter:	; 1 bytes @ 0x8
  1537  0078                     	ds	1
  1538  0079                     ??___lwmod:	; 0 bytes @ 0x9
  1539  0079                     	ds	1
  1540                           opt subtitle "HI-TECH Software Omniscient Code Generator (Lite mode) build 49521"
  1541  007A                     ___lwmod@counter:	; 1 bytes @ 0xA
  1542  007A                     	ds	1
  1543  007B                     ??_init_sumo:	; 0 bytes @ 0xB
  1544  007B                     	ds	1
  1545                           opt subtitle "HI-TECH Software Omniscient Code Generator (Lite mode) build 49521"
  1546                           
  1547  0020                     __pcstackBANK0:
  1548                           opt subtitle "HI-TECH Software Omniscient Code Generator (Lite mode) build 49521"
  1549  0020                     ?___lwmod:	; 2 bytes @ 0x0
  1550                           opt subtitle "HI-TECH Software Omniscient Code Generator (Lite mode) build 49521"
  1551  0020                     ___lwmod@divisor:	; 2 bytes @ 0x0
  1552  0020                     	ds	2
  1553                           opt subtitle "HI-TECH Software Omniscient Code Generator (Lite mode) build 49521"
  1554  0022                     ___lwmod@dividend:	; 2 bytes @ 0x2
  1555  0022                     	ds	2
  1556                           opt subtitle "HI-TECH Software Omniscient Code Generator (Lite mode) build 49521"
  1557  0024                     ?_printf:	; 2 bytes @ 0x4
  1558  0024                     	ds	12
  1559  0030                     ??_printf:	; 0 bytes @ 0x10
  1560  0030                     	ds	3
  1561                           opt subtitle "HI-TECH Software Omniscient Code Generator (Lite mode) build 49521"
  1562  0033                     printf@ap:	; 1 bytes @ 0x13
  1563  0033                     	ds	1
  1564                           opt subtitle "HI-TECH Software Omniscient Code Generator (Lite mode) build 49521"
  1565  0034                     printf@prec:	; 1 bytes @ 0x14
  1566  0034                     	ds	1
  1567                           opt subtitle "HI-TECH Software Omniscient Code Generator (Lite mode) build 49521"
  1568  0035                     printf@flag:	; 1 bytes @ 0x15
  1569  0035                     	ds	1
  1570                           opt subtitle "HI-TECH Software Omniscient Code Generator (Lite mode) build 49521"
  1571  0036                     printf@_val:	; 4 bytes @ 0x16
  1572  0036                     	ds	4
  1573                           opt subtitle "HI-TECH Software Omniscient Code Generator (Lite mode) build 49521"
  1574  003A                     printf@f:	; 1 bytes @ 0x1A
  1575  003A                     	ds	1
  1576                           opt subtitle "HI-TECH Software Omniscient Code Generator (Lite mode) build 49521"
  1577  003B                     printf@width:	; 2 bytes @ 0x1B
  1578  003B                     	ds	2
  1579                           opt subtitle "HI-TECH Software Omniscient Code Generator (Lite mode) build 49521"
  1580  003D                     printf@c:	; 1 bytes @ 0x1D
  1581  003D                     	ds	1
  1582  003E                     ??_get_sensors:	; 0 bytes @ 0x1E
  1583  003E                     	ds	2
  1584                           opt subtitle "HI-TECH Software Omniscient Code Generator (Lite mode) build 49521"
  1585  0040                     get_sensors@mFrontLeftLine:	; 2 bytes @ 0x20
  1586  0040                     	ds	2
  1587                           opt subtitle "HI-TECH Software Omniscient Code Generator (Lite mode) build 49521"
  1588  0042                     get_sensors@mFrontRightLine:	; 2 bytes @ 0x22
  1589  0042                     	ds	2
  1590                           opt subtitle "HI-TECH Software Omniscient Code Generator (Lite mode) build 49521"
  1591  0044                     get_sensors@mBackLeftLine:	; 2 bytes @ 0x24
  1592  0044                     	ds	2
  1593                           opt subtitle "HI-TECH Software Omniscient Code Generator (Lite mode) build 49521"
  1594  0046                     get_sensors@mBackRightLine:	; 2 bytes @ 0x26
  1595  0046                     	ds	2
  1596                           opt subtitle "HI-TECH Software Omniscient Code Generator (Lite mode) build 49521"
  1597  0048                     get_sensors@mLeftRange:	; 2 bytes @ 0x28
  1598  0048                     	ds	2
  1599                           opt subtitle "HI-TECH Software Omniscient Code Generator (Lite mode) build 49521"
  1600  004A                     get_sensors@mRightRange:	; 2 bytes @ 0x2A
  1601  004A                     	ds	2
  1602                           opt subtitle "HI-TECH Software Omniscient Code Generator (Lite mode) build 49521"
  1603  004C                     get_sensors@i:	; 1 bytes @ 0x2C
  1604  004C                     	ds	1
  1605  004D                     ??_main:	; 0 bytes @ 0x2D
  1606  004D                     	ds	1
  1607                           opt subtitle "HI-TECH Software Omniscient Code Generator (Lite mode) build 49521"
  1608                           
  1609                           opt pagewidth 120
  1610                           
  1611                           	opt lm
  1612                           
  1613                           	processor	16F1937
  1614                           clrc	macro
  1615                           	bcf	3,0
  1616                           	endm
  1617                           clrz	macro
  1618                           	bcf	3,2
  1619                           	endm
  1620                           setc	macro
  1621                           	bsf	3,0
  1622                           	endm
  1623                           setz	macro
  1624                           	bsf	3,2
  1625                           	endm
  1626                           skipc	macro
  1627                           	btfss	3,0
  1628                           	endm
  1629                           skipz	macro
  1630                           	btfss	3,2
  1631                           	endm
  1632                           skipnc	macro
  1633                           	btfsc	3,0
  1634                           	endm
  1635                           skipnz	macro
  1636                           	btfsc	3,2
  1637                           	endm
  1638                           indf	equ	0
  1639                           indf0	equ	0
  1640                           indf1	equ	1
  1641                           pc	equ	2
  1642                           pcl	equ	2
  1643                           status	equ	3
  1644                           fsr0l	equ	4
  1645                           fsr0h	equ	5
  1646                           fsr1l	equ	6
  1647                           fsr1h	equ	7
  1648                           bsr	equ	8
  1649                           wreg	equ	9
  1650                           intcon	equ	11
  1651                           c	equ	1
  1652                           z	equ	0
  1653                           pclath	equ	10
  1654                           # 46 "/opt/microchip/xc8/v1.12/include/pic16f1937.h"
  1655                           INDF0 equ 00h ;# 
  1656                           # 65 "/opt/microchip/xc8/v1.12/include/pic16f1937.h"
  1657                           INDF1 equ 01h ;# 
  1658                           # 84 "/opt/microchip/xc8/v1.12/include/pic16f1937.h"
  1659                           PCL equ 02h ;# 
  1660                           # 103 "/opt/microchip/xc8/v1.12/include/pic16f1937.h"
  1661                           STATUS equ 03h ;# 
  1662                           # 166 "/opt/microchip/xc8/v1.12/include/pic16f1937.h"
  1663                           FSR0L equ 04h ;# 
  1664                           # 185 "/opt/microchip/xc8/v1.12/include/pic16f1937.h"
  1665                           FSR0H equ 05h ;# 
  1666                           # 207 "/opt/microchip/xc8/v1.12/include/pic16f1937.h"
  1667                           FSR1L equ 06h ;# 
  1668                           # 226 "/opt/microchip/xc8/v1.12/include/pic16f1937.h"
  1669                           FSR1H equ 07h ;# 
  1670                           # 245 "/opt/microchip/xc8/v1.12/include/pic16f1937.h"
  1671                           BSR equ 08h ;# 
  1672                           # 296 "/opt/microchip/xc8/v1.12/include/pic16f1937.h"
  1673                           WREG equ 09h ;# 
  1674                           # 315 "/opt/microchip/xc8/v1.12/include/pic16f1937.h"
  1675                           PCLATH equ 0Ah ;# 
  1676                           # 334 "/opt/microchip/xc8/v1.12/include/pic16f1937.h"
  1677                           INTCON equ 0Bh ;# 
  1678                           # 411 "/opt/microchip/xc8/v1.12/include/pic16f1937.h"
  1679                           PORTA equ 0Ch ;# 
  1680                           # 472 "/opt/microchip/xc8/v1.12/include/pic16f1937.h"
  1681                           PORTB equ 0Dh ;# 
  1682                           # 533 "/opt/microchip/xc8/v1.12/include/pic16f1937.h"
  1683                           PORTC equ 0Eh ;# 
  1684                           # 594 "/opt/microchip/xc8/v1.12/include/pic16f1937.h"
  1685                           PORTD equ 0Fh ;# 
  1686                           # 655 "/opt/microchip/xc8/v1.12/include/pic16f1937.h"
  1687                           PORTE equ 010h ;# 
  1688                           # 692 "/opt/microchip/xc8/v1.12/include/pic16f1937.h"
  1689                           PIR1 equ 011h ;# 
  1690                           # 753 "/opt/microchip/xc8/v1.12/include/pic16f1937.h"
  1691                           PIR2 equ 012h ;# 
  1692                           # 809 "/opt/microchip/xc8/v1.12/include/pic16f1937.h"
  1693                           PIR3 equ 013h ;# 
  1694                           # 854 "/opt/microchip/xc8/v1.12/include/pic16f1937.h"
  1695                           TMR0 equ 015h ;# 
  1696                           # 873 "/opt/microchip/xc8/v1.12/include/pic16f1937.h"
  1697                           TMR1 equ 016h ;# 
  1698                           # 879 "/opt/microchip/xc8/v1.12/include/pic16f1937.h"
  1699                           TMR1L equ 016h ;# 
  1700                           # 898 "/opt/microchip/xc8/v1.12/include/pic16f1937.h"
  1701                           TMR1H equ 017h ;# 
  1702                           # 917 "/opt/microchip/xc8/v1.12/include/pic16f1937.h"
  1703                           T1CON equ 018h ;# 
  1704                           # 988 "/opt/microchip/xc8/v1.12/include/pic16f1937.h"
  1705                           T1GCON equ 019h ;# 
  1706                           # 1064 "/opt/microchip/xc8/v1.12/include/pic16f1937.h"
  1707                           TMR2 equ 01Ah ;# 
  1708                           # 1083 "/opt/microchip/xc8/v1.12/include/pic16f1937.h"
  1709                           PR2 equ 01Bh ;# 
  1710                           # 1102 "/opt/microchip/xc8/v1.12/include/pic16f1937.h"
  1711                           T2CON equ 01Ch ;# 
  1712                           # 1172 "/opt/microchip/xc8/v1.12/include/pic16f1937.h"
  1713                           CPSCON0 equ 01Eh ;# 
  1714                           # 1225 "/opt/microchip/xc8/v1.12/include/pic16f1937.h"
  1715                           CPSCON1 equ 01Fh ;# 
  1716                           # 1270 "/opt/microchip/xc8/v1.12/include/pic16f1937.h"
  1717                           TRISA equ 08Ch ;# 
  1718                           # 1331 "/opt/microchip/xc8/v1.12/include/pic16f1937.h"
  1719                           TRISB equ 08Dh ;# 
  1720                           # 1392 "/opt/microchip/xc8/v1.12/include/pic16f1937.h"
  1721                           TRISC equ 08Eh ;# 
  1722                           # 1453 "/opt/microchip/xc8/v1.12/include/pic16f1937.h"
  1723                           TRISD equ 08Fh ;# 
  1724                           # 1514 "/opt/microchip/xc8/v1.12/include/pic16f1937.h"
  1725                           TRISE equ 090h ;# 
  1726                           # 1551 "/opt/microchip/xc8/v1.12/include/pic16f1937.h"
  1727                           PIE1 equ 091h ;# 
  1728                           # 1612 "/opt/microchip/xc8/v1.12/include/pic16f1937.h"
  1729                           PIE2 equ 092h ;# 
  1730                           # 1668 "/opt/microchip/xc8/v1.12/include/pic16f1937.h"
  1731                           PIE3 equ 093h ;# 
  1732                           # 1713 "/opt/microchip/xc8/v1.12/include/pic16f1937.h"
  1733                           OPTION_REG equ 095h ;# 
  1734                           # 1795 "/opt/microchip/xc8/v1.12/include/pic16f1937.h"
  1735                           PCON equ 096h ;# 
  1736                           # 1845 "/opt/microchip/xc8/v1.12/include/pic16f1937.h"
  1737                           WDTCON equ 097h ;# 
  1738                           # 1903 "/opt/microchip/xc8/v1.12/include/pic16f1937.h"
  1739                           OSCTUNE equ 098h ;# 
  1740                           # 1960 "/opt/microchip/xc8/v1.12/include/pic16f1937.h"
  1741                           OSCCON equ 099h ;# 
  1742                           # 2031 "/opt/microchip/xc8/v1.12/include/pic16f1937.h"
  1743                           OSCSTAT equ 09Ah ;# 
  1744                           # 2092 "/opt/microchip/xc8/v1.12/include/pic16f1937.h"
  1745                           ADRES equ 09Bh ;# 
  1746                           # 2098 "/opt/microchip/xc8/v1.12/include/pic16f1937.h"
  1747                           ADRESL equ 09Bh ;# 
  1748                           # 2117 "/opt/microchip/xc8/v1.12/include/pic16f1937.h"
  1749                           ADRESH equ 09Ch ;# 
  1750                           # 2136 "/opt/microchip/xc8/v1.12/include/pic16f1937.h"
  1751                           ADCON0 equ 09Dh ;# 
  1752                           # 2224 "/opt/microchip/xc8/v1.12/include/pic16f1937.h"
  1753                           ADCON1 equ 09Eh ;# 
  1754                           # 2295 "/opt/microchip/xc8/v1.12/include/pic16f1937.h"
  1755                           LATA equ 010Ch ;# 
  1756                           # 2356 "/opt/microchip/xc8/v1.12/include/pic16f1937.h"
  1757                           LATB equ 010Dh ;# 
  1758                           # 2417 "/opt/microchip/xc8/v1.12/include/pic16f1937.h"
  1759                           LATC equ 010Eh ;# 
  1760                           # 2478 "/opt/microchip/xc8/v1.12/include/pic16f1937.h"
  1761                           LATD equ 010Fh ;# 
  1762                           # 2547 "/opt/microchip/xc8/v1.12/include/pic16f1937.h"
  1763                           LATE equ 0110h ;# 
  1764                           # 2584 "/opt/microchip/xc8/v1.12/include/pic16f1937.h"
  1765                           CM1CON0 equ 0111h ;# 
  1766                           # 2640 "/opt/microchip/xc8/v1.12/include/pic16f1937.h"
  1767                           CM1CON1 equ 0112h ;# 
  1768                           # 2705 "/opt/microchip/xc8/v1.12/include/pic16f1937.h"
  1769                           CM2CON0 equ 0113h ;# 
  1770                           # 2761 "/opt/microchip/xc8/v1.12/include/pic16f1937.h"
  1771                           CM2CON1 equ 0114h ;# 
  1772                           # 2826 "/opt/microchip/xc8/v1.12/include/pic16f1937.h"
  1773                           CMOUT equ 0115h ;# 
  1774                           # 2851 "/opt/microchip/xc8/v1.12/include/pic16f1937.h"
  1775                           BORCON equ 0116h ;# 
  1776                           # 2877 "/opt/microchip/xc8/v1.12/include/pic16f1937.h"
  1777                           FVRCON equ 0117h ;# 
  1778                           # 2952 "/opt/microchip/xc8/v1.12/include/pic16f1937.h"
  1779                           DACCON0 equ 0118h ;# 
  1780                           # 3012 "/opt/microchip/xc8/v1.12/include/pic16f1937.h"
  1781                           DACCON1 equ 0119h ;# 
  1782                           # 3063 "/opt/microchip/xc8/v1.12/include/pic16f1937.h"
  1783                           SRCON0 equ 011Ah ;# 
  1784                           # 3133 "/opt/microchip/xc8/v1.12/include/pic16f1937.h"
  1785                           SRCON1 equ 011Bh ;# 
  1786                           # 3194 "/opt/microchip/xc8/v1.12/include/pic16f1937.h"
  1787                           APFCON equ 011Dh ;# 
  1788                           # 3249 "/opt/microchip/xc8/v1.12/include/pic16f1937.h"
  1789                           ANSELA equ 018Ch ;# 
  1790                           # 3306 "/opt/microchip/xc8/v1.12/include/pic16f1937.h"
  1791                           ANSELB equ 018Dh ;# 
  1792                           # 3363 "/opt/microchip/xc8/v1.12/include/pic16f1937.h"
  1793                           ANSELD equ 018Fh ;# 
  1794                           # 3432 "/opt/microchip/xc8/v1.12/include/pic16f1937.h"
  1795                           ANSELE equ 0190h ;# 
  1796                           # 3471 "/opt/microchip/xc8/v1.12/include/pic16f1937.h"
  1797                           EEADR equ 0191h ;# 
  1798                           # 3477 "/opt/microchip/xc8/v1.12/include/pic16f1937.h"
  1799                           EEADRL equ 0191h ;# 
  1800                           # 3496 "/opt/microchip/xc8/v1.12/include/pic16f1937.h"
  1801                           EEADRH equ 0192h ;# 
  1802                           # 3515 "/opt/microchip/xc8/v1.12/include/pic16f1937.h"
  1803                           EEDAT equ 0193h ;# 
  1804                           # 3521 "/opt/microchip/xc8/v1.12/include/pic16f1937.h"
  1805                           EEDATL equ 0193h ;# 
  1806                           # 3526 "/opt/microchip/xc8/v1.12/include/pic16f1937.h"
  1807                           EEDATA equ 0193h ;# 
  1808                           # 3558 "/opt/microchip/xc8/v1.12/include/pic16f1937.h"
  1809                           EEDATH equ 0194h ;# 
  1810                           # 3577 "/opt/microchip/xc8/v1.12/include/pic16f1937.h"
  1811                           EECON1 equ 0195h ;# 
  1812                           # 3638 "/opt/microchip/xc8/v1.12/include/pic16f1937.h"
  1813                           EECON2 equ 0196h ;# 
  1814                           # 3657 "/opt/microchip/xc8/v1.12/include/pic16f1937.h"
  1815                           RCREG equ 0199h ;# 
  1816                           # 3676 "/opt/microchip/xc8/v1.12/include/pic16f1937.h"
  1817                           TXREG equ 019Ah ;# 
  1818                           # 3695 "/opt/microchip/xc8/v1.12/include/pic16f1937.h"
  1819                           SPBRGL equ 019Bh ;# 
  1820                           # 3700 "/opt/microchip/xc8/v1.12/include/pic16f1937.h"
  1821                           SPBRG equ 019Bh ;# 
  1822                           # 3732 "/opt/microchip/xc8/v1.12/include/pic16f1937.h"
  1823                           SPBRGH equ 019Ch ;# 
  1824                           # 3751 "/opt/microchip/xc8/v1.12/include/pic16f1937.h"
  1825                           RCSTA equ 019Dh ;# 
  1826                           # 3812 "/opt/microchip/xc8/v1.12/include/pic16f1937.h"
  1827                           TXSTA equ 019Eh ;# 
  1828                           # 3873 "/opt/microchip/xc8/v1.12/include/pic16f1937.h"
  1829                           BAUDCON equ 019Fh ;# 
  1830                           # 3924 "/opt/microchip/xc8/v1.12/include/pic16f1937.h"
  1831                           WPUB equ 020Dh ;# 
  1832                           # 3993 "/opt/microchip/xc8/v1.12/include/pic16f1937.h"
  1833                           WPUE equ 0210h ;# 
  1834                           # 4013 "/opt/microchip/xc8/v1.12/include/pic16f1937.h"
  1835                           SSPBUF equ 0211h ;# 
  1836                           # 4032 "/opt/microchip/xc8/v1.12/include/pic16f1937.h"
  1837                           SSPADD equ 0212h ;# 
  1838                           # 4051 "/opt/microchip/xc8/v1.12/include/pic16f1937.h"
  1839                           SSPMSK equ 0213h ;# 
  1840                           # 4070 "/opt/microchip/xc8/v1.12/include/pic16f1937.h"
  1841                           SSPSTAT equ 0214h ;# 
  1842                           # 4131 "/opt/microchip/xc8/v1.12/include/pic16f1937.h"
  1843                           SSPCON1 equ 0215h ;# 
  1844                           # 4136 "/opt/microchip/xc8/v1.12/include/pic16f1937.h"
  1845                           SSPCON equ 0215h ;# 
  1846                           # 4252 "/opt/microchip/xc8/v1.12/include/pic16f1937.h"
  1847                           SSPCON2 equ 0216h ;# 
  1848                           # 4313 "/opt/microchip/xc8/v1.12/include/pic16f1937.h"
  1849                           SSPCON3 equ 0217h ;# 
  1850                           # 4374 "/opt/microchip/xc8/v1.12/include/pic16f1937.h"
  1851                           CCPR1L equ 0291h ;# 
  1852                           # 4393 "/opt/microchip/xc8/v1.12/include/pic16f1937.h"
  1853                           CCPR1H equ 0292h ;# 
  1854                           # 4412 "/opt/microchip/xc8/v1.12/include/pic16f1937.h"
  1855                           CCP1CON equ 0293h ;# 
  1856                           # 4493 "/opt/microchip/xc8/v1.12/include/pic16f1937.h"
  1857                           PWM1CON equ 0294h ;# 
  1858                           # 4554 "/opt/microchip/xc8/v1.12/include/pic16f1937.h"
  1859                           CCP1AS equ 0295h ;# 
  1860                           # 4559 "/opt/microchip/xc8/v1.12/include/pic16f1937.h"
  1861                           ECCP1AS equ 0295h ;# 
  1862                           # 4675 "/opt/microchip/xc8/v1.12/include/pic16f1937.h"
  1863                           PSTR1CON equ 0296h ;# 
  1864                           # 4718 "/opt/microchip/xc8/v1.12/include/pic16f1937.h"
  1865                           CCPR2L equ 0298h ;# 
  1866                           # 4737 "/opt/microchip/xc8/v1.12/include/pic16f1937.h"
  1867                           CCPR2H equ 0299h ;# 
  1868                           # 4756 "/opt/microchip/xc8/v1.12/include/pic16f1937.h"
  1869                           CCP2CON equ 029Ah ;# 
  1870                           # 4837 "/opt/microchip/xc8/v1.12/include/pic16f1937.h"
  1871                           PWM2CON equ 029Bh ;# 
  1872                           # 4898 "/opt/microchip/xc8/v1.12/include/pic16f1937.h"
  1873                           CCP2AS equ 029Ch ;# 
  1874                           # 4903 "/opt/microchip/xc8/v1.12/include/pic16f1937.h"
  1875                           ECCP2AS equ 029Ch ;# 
  1876                           # 5019 "/opt/microchip/xc8/v1.12/include/pic16f1937.h"
  1877                           PSTR2CON equ 029Dh ;# 
  1878                           # 5062 "/opt/microchip/xc8/v1.12/include/pic16f1937.h"
  1879                           CCPTMRS0 equ 029Eh ;# 
  1880                           # 5149 "/opt/microchip/xc8/v1.12/include/pic16f1937.h"
  1881                           CCPTMRS1 equ 029Fh ;# 
  1882                           # 5182 "/opt/microchip/xc8/v1.12/include/pic16f1937.h"
  1883                           CCPR3L equ 0311h ;# 
  1884                           # 5201 "/opt/microchip/xc8/v1.12/include/pic16f1937.h"
  1885                           CCPR3H equ 0312h ;# 
  1886                           # 5220 "/opt/microchip/xc8/v1.12/include/pic16f1937.h"
  1887                           CCP3CON equ 0313h ;# 
  1888                           # 5301 "/opt/microchip/xc8/v1.12/include/pic16f1937.h"
  1889                           PWM3CON equ 0314h ;# 
  1890                           # 5362 "/opt/microchip/xc8/v1.12/include/pic16f1937.h"
  1891                           CCP3AS equ 0315h ;# 
  1892                           # 5367 "/opt/microchip/xc8/v1.12/include/pic16f1937.h"
  1893                           ECCP3AS equ 0315h ;# 
  1894                           # 5483 "/opt/microchip/xc8/v1.12/include/pic16f1937.h"
  1895                           PSTR3CON equ 0316h ;# 
  1896                           # 5526 "/opt/microchip/xc8/v1.12/include/pic16f1937.h"
  1897                           CCPR4L equ 0318h ;# 
  1898                           # 5545 "/opt/microchip/xc8/v1.12/include/pic16f1937.h"
  1899                           CCPR4H equ 0319h ;# 
  1900                           # 5564 "/opt/microchip/xc8/v1.12/include/pic16f1937.h"
  1901                           CCP4CON equ 031Ah ;# 
  1902                           # 5627 "/opt/microchip/xc8/v1.12/include/pic16f1937.h"
  1903                           CCPR5L equ 031Ch ;# 
  1904                           # 5646 "/opt/microchip/xc8/v1.12/include/pic16f1937.h"
  1905                           CCPR5H equ 031Dh ;# 
  1906                           # 5665 "/opt/microchip/xc8/v1.12/include/pic16f1937.h"
  1907                           CCP5CON equ 031Eh ;# 
  1908                           # 5728 "/opt/microchip/xc8/v1.12/include/pic16f1937.h"
  1909                           IOCBP equ 0394h ;# 
  1910                           # 5797 "/opt/microchip/xc8/v1.12/include/pic16f1937.h"
  1911                           IOCBN equ 0395h ;# 
  1912                           # 5866 "/opt/microchip/xc8/v1.12/include/pic16f1937.h"
  1913                           IOCBF equ 0396h ;# 
  1914                           # 5935 "/opt/microchip/xc8/v1.12/include/pic16f1937.h"
  1915                           TMR4 equ 0415h ;# 
  1916                           # 5954 "/opt/microchip/xc8/v1.12/include/pic16f1937.h"
  1917                           PR4 equ 0416h ;# 
  1918                           # 5973 "/opt/microchip/xc8/v1.12/include/pic16f1937.h"
  1919                           T4CON equ 0417h ;# 
  1920                           # 6043 "/opt/microchip/xc8/v1.12/include/pic16f1937.h"
  1921                           TMR6 equ 041Ch ;# 
  1922                           # 6062 "/opt/microchip/xc8/v1.12/include/pic16f1937.h"
  1923                           PR6 equ 041Dh ;# 
  1924                           # 6081 "/opt/microchip/xc8/v1.12/include/pic16f1937.h"
  1925                           T6CON equ 041Eh ;# 
  1926                           # 6151 "/opt/microchip/xc8/v1.12/include/pic16f1937.h"
  1927                           LCDCON equ 0791h ;# 
  1928                           # 6221 "/opt/microchip/xc8/v1.12/include/pic16f1937.h"
  1929                           LCDPS equ 0792h ;# 
  1930                           # 6290 "/opt/microchip/xc8/v1.12/include/pic16f1937.h"
  1931                           LCDREF equ 0793h ;# 
  1932                           # 6341 "/opt/microchip/xc8/v1.12/include/pic16f1937.h"
  1933                           LCDCST equ 0794h ;# 
  1934                           # 6380 "/opt/microchip/xc8/v1.12/include/pic16f1937.h"
  1935                           LCDRL equ 0795h ;# 
  1936                           # 6457 "/opt/microchip/xc8/v1.12/include/pic16f1937.h"
  1937                           LCDSE0 equ 0798h ;# 
  1938                           # 6518 "/opt/microchip/xc8/v1.12/include/pic16f1937.h"
  1939                           LCDSE1 equ 0799h ;# 
  1940                           # 6579 "/opt/microchip/xc8/v1.12/include/pic16f1937.h"
  1941                           LCDSE2 equ 079Ah ;# 
  1942                           # 6640 "/opt/microchip/xc8/v1.12/include/pic16f1937.h"
  1943                           LCDDATA0 equ 07A0h ;# 
  1944                           # 6701 "/opt/microchip/xc8/v1.12/include/pic16f1937.h"
  1945                           LCDDATA1 equ 07A1h ;# 
  1946                           # 6762 "/opt/microchip/xc8/v1.12/include/pic16f1937.h"
  1947                           LCDDATA2 equ 07A2h ;# 
  1948                           # 6823 "/opt/microchip/xc8/v1.12/include/pic16f1937.h"
  1949                           LCDDATA3 equ 07A3h ;# 
  1950                           # 6884 "/opt/microchip/xc8/v1.12/include/pic16f1937.h"
  1951                           LCDDATA4 equ 07A4h ;# 
  1952                           # 6945 "/opt/microchip/xc8/v1.12/include/pic16f1937.h"
  1953                           LCDDATA5 equ 07A5h ;# 
  1954  000D                     __pmaintext:	;psect for function _main
  1955                           opt subtitle "HI-TECH Software Omniscient Code Generator (Lite mode) build 49521"
  1956                           
  1957                           opt pagewidth 120
  1958                           
  1959  0164                     	__size_of_main	equ	__end_of_main-_main
  1960                           opt subtitle "HI-TECH Software Omniscient Code Generator (Lite mode) build 49521"
  1961  000D                     _main:	
  1962                           opt subtitle "HI-TECH Software Omniscient Code Generator (Lite mode) build 49521"
  1963                           
  1964                           opt pagewidth 120
  1965                           
  1966  000D                     l1633:	
  1967                           opt subtitle "HI-TECH Software Omniscient Code Generator (Lite mode) build 49521"
  1968  000D  3184  2428  3180   	fcall	_init_sumo
  1969                           opt subtitle "HI-TECH Software Omniscient Code Generator (Lite mode) build 49521"
  1970                           
  1971  0010                     l1635:	
  1972                           opt subtitle "HI-TECH Software Omniscient Code Generator (Lite mode) build 49521"
  1973  0010  187C               	btfsc	(_isDebug/8),(_isDebug)&7
  1974  0011  2813               	goto	u2521
  1975  0012  2814               	goto	u2520
  1976  0013                     u2521:
  1977  0013  2874               	goto	l103
  1978  0014                     u2520:
  1979                           opt subtitle "HI-TECH Software Omniscient Code Generator (Lite mode) build 49521"
  1980                           
  1981  0014                     l1637:	
  1982                           opt subtitle "HI-TECH Software Omniscient Code Generator (Lite mode) build 49521"
  1983                           
  1984  0014  0020               	movlb 0	; select bank0
  1985  0015  01DF               	clrf	(_i)
  1986                           opt subtitle "HI-TECH Software Omniscient Code Generator (Lite mode) build 49521"
  1987  0016                     l1639:	
  1988  0016  3004               	movlw	(04h)
  1989  0017  025F               	subwf	(_i),w
  1990  0018  1C03               	skipc
  1991  0019  281B               	goto	u2531
  1992  001A  281C               	goto	u2530
  1993  001B                     u2531:
  1994  001B  281E               	goto	l1643
  1995  001C                     u2530:
  1996  001C  285A               	goto	l1655
  1997                           opt subtitle "HI-TECH Software Omniscient Code Generator (Lite mode) build 49521"
  1998  001D                     l1641:	
  1999  001D  285A               	goto	l1655
  2000                           opt subtitle "HI-TECH Software Omniscient Code Generator (Lite mode) build 49521"
  2001                           
  2002  001E                     l101:	
  2003                           opt subtitle "HI-TECH Software Omniscient Code Generator (Lite mode) build 49521"
  2004                           
  2005  001E                     l1643:	
  2006                           opt subtitle "HI-TECH Software Omniscient Code Generator (Lite mode) build 49521"
  2007                           
  2008  001E  3000               	movlw	0
  2009  001F  1E8F               	btfss	(15),5	;volatile
  2010  0020  3001               	movlw	1
  2011  0021  00CD               	movwf	(??_main+0)+0
  2012  0022  0ECD               	swapf	(??_main+0)+0,f
  2013  0023  0DCD               	rlf	(??_main+0)+0,f
  2014  0024  0DCD               	rlf	(??_main+0)+0,f
  2015  0025  0022               	movlb 2	; select bank2
  2016  0026  080E               	movf	(270)^0100h,w	;volatile
  2017  0027  0020               	movlb 0	; select bank0
  2018  0028  064D               	xorwf	(??_main+0)+0,w
  2019  0029  39BF               	andlw	not (((1<<1)-1)<<6)
  2020  002A  064D               	xorwf	(??_main+0)+0,w
  2021  002B  0022               	movlb 2	; select bank2
  2022  002C  008E               	movwf	(270)^0100h	;volatile
  2023                           opt subtitle "HI-TECH Software Omniscient Code Generator (Lite mode) build 49521"
  2024                           
  2025  002D                     l1645:	
  2026                           opt subtitle "HI-TECH Software Omniscient Code Generator (Lite mode) build 49521"
  2027  002D  0020               	movlb 0	; select bank0
  2028  002E  1A8F               	btfsc	(15),5	;volatile
  2029  002F  2831               	goto	u2541
  2030  0030  2834               	goto	u2540
  2031                           opt subtitle "HI-TECH Software Omniscient Code Generator (Lite mode) build 49521"
  2032  0031                     u2541:
  2033  0031  0022               	movlb 2	; select bank2
  2034  0032  178E               	bsf	(270)^0100h,7	;volatile
  2035  0033  2836               	goto	u2554
  2036  0034                     u2540:
  2037  0034  0022               	movlb 2	; select bank2
  2038  0035  138E               	bcf	(270)^0100h,7	;volatile
  2039  0036                     u2554:
  2040                           opt subtitle "HI-TECH Software Omniscient Code Generator (Lite mode) build 49521"
  2041                           
  2042  0036                     l1647:	
  2043                           opt subtitle "HI-TECH Software Omniscient Code Generator (Lite mode) build 49521"
  2044  0036  3064               	movlw	low(064h)
  2045  0037  00F1               	movwf	(?_delay_ms)
  2046  0038  3000               	movlw	high(064h)
  2047  0039  00F2               	movwf	((?_delay_ms))+1
  2048  003A  3186  26F7  3180   	fcall	_delay_ms
  2049                           opt subtitle "HI-TECH Software Omniscient Code Generator (Lite mode) build 49521"
  2050                           
  2051  003D                     l1649:	
  2052                           opt subtitle "HI-TECH Software Omniscient Code Generator (Lite mode) build 49521"
  2053  003D  0022               	movlb 2	; select bank2
  2054  003E  178E               	bsf	(270)^0100h,7	;volatile
  2055  003F  1B8E               	btfsc	(270)^0100h,7	;volatile
  2056  0040  2842               	goto	u2561
  2057  0041  2845               	goto	u2560
  2058                           opt subtitle "HI-TECH Software Omniscient Code Generator (Lite mode) build 49521"
  2059  0042                     u2561:
  2060  0042  0022               	movlb 2	; select bank2
  2061  0043  170E               	bsf	(270)^0100h,6	;volatile
  2062  0044  2847               	goto	u2574
  2063  0045                     u2560:
  2064  0045  0022               	movlb 2	; select bank2
  2065  0046  130E               	bcf	(270)^0100h,6	;volatile
  2066  0047                     u2574:
  2067                           opt subtitle "HI-TECH Software Omniscient Code Generator (Lite mode) build 49521"
  2068                           
  2069  0047                     l1651:	
  2070                           opt subtitle "HI-TECH Software Omniscient Code Generator (Lite mode) build 49521"
  2071  0047  3064               	movlw	low(064h)
  2072  0048  00F1               	movwf	(?_delay_ms)
  2073  0049  3000               	movlw	high(064h)
  2074  004A  00F2               	movwf	((?_delay_ms))+1
  2075  004B  3186  26F7  3180   	fcall	_delay_ms
  2076                           opt subtitle "HI-TECH Software Omniscient Code Generator (Lite mode) build 49521"
  2077  004E  3001               	movlw	(01h)
  2078  004F  0020               	movlb 0	; select bank0
  2079  0050  00CD               	movwf	(??_main+0)+0
  2080  0051  084D               	movf	(??_main+0)+0,w
  2081  0052  07DF               	addwf	(_i),f
  2082                           opt subtitle "HI-TECH Software Omniscient Code Generator (Lite mode) build 49521"
  2083  0053                     l1653:	
  2084  0053  3004               	movlw	(04h)
  2085  0054  025F               	subwf	(_i),w
  2086  0055  1C03               	skipc
  2087  0056  2858               	goto	u2581
  2088  0057  2859               	goto	u2580
  2089  0058                     u2581:
  2090  0058  281E               	goto	l1643
  2091  0059                     u2580:
  2092  0059  285A               	goto	l1655
  2093                           opt subtitle "HI-TECH Software Omniscient Code Generator (Lite mode) build 49521"
  2094  005A                     l102:	
  2095                           opt subtitle "HI-TECH Software Omniscient Code Generator (Lite mode) build 49521"
  2096                           
  2097  005A                     l1655:	
  2098                           opt subtitle "HI-TECH Software Omniscient Code Generator (Lite mode) build 49521"
  2099                           
  2100  005A  3000               	movlw	0
  2101  005B  1E8F               	btfss	(15),5	;volatile
  2102  005C  3001               	movlw	1
  2103  005D  00CD               	movwf	(??_main+0)+0
  2104  005E  0ECD               	swapf	(??_main+0)+0,f
  2105  005F  0DCD               	rlf	(??_main+0)+0,f
  2106  0060  0DCD               	rlf	(??_main+0)+0,f
  2107  0061  0022               	movlb 2	; select bank2
  2108  0062  080E               	movf	(270)^0100h,w	;volatile
  2109  0063  0020               	movlb 0	; select bank0
  2110  0064  064D               	xorwf	(??_main+0)+0,w
  2111  0065  39BF               	andlw	not (((1<<1)-1)<<6)
  2112  0066  064D               	xorwf	(??_main+0)+0,w
  2113  0067  0022               	movlb 2	; select bank2
  2114  0068  008E               	movwf	(270)^0100h	;volatile
  2115                           opt subtitle "HI-TECH Software Omniscient Code Generator (Lite mode) build 49521"
  2116                           
  2117  0069                     l1657:	
  2118                           opt subtitle "HI-TECH Software Omniscient Code Generator (Lite mode) build 49521"
  2119  0069  0020               	movlb 0	; select bank0
  2120  006A  1A8F               	btfsc	(15),5	;volatile
  2121  006B  286D               	goto	u2591
  2122  006C  2870               	goto	u2590
  2123                           opt subtitle "HI-TECH Software Omniscient Code Generator (Lite mode) build 49521"
  2124  006D                     u2591:
  2125  006D  0022               	movlb 2	; select bank2
  2126  006E  178E               	bsf	(270)^0100h,7	;volatile
  2127  006F  2872               	goto	u2604
  2128  0070                     u2590:
  2129  0070  0022               	movlb 2	; select bank2
  2130  0071  138E               	bcf	(270)^0100h,7	;volatile
  2131  0072                     u2604:
  2132  0072  2874               	goto	l103
  2133                           opt subtitle "HI-TECH Software Omniscient Code Generator (Lite mode) build 49521"
  2134                           
  2135  0073                     l100:	
  2136                           opt subtitle "HI-TECH Software Omniscient Code Generator (Lite mode) build 49521"
  2137                           
  2138                           opt pagewidth 120
  2139  0073  2874               	goto	l103
  2140                           opt subtitle "HI-TECH Software Omniscient Code Generator (Lite mode) build 49521"
  2141  0074                     l104:	
  2142                           opt subtitle "HI-TECH Software Omniscient Code Generator (Lite mode) build 49521"
  2143  0074                     l103:	
  2144  0074  0020               	movlb 0	; select bank0
  2145  0075  1E0F               	btfss	(15),4	;volatile
  2146  0076  2878               	goto	u2611
  2147  0077  2879               	goto	u2610
  2148  0078                     u2611:
  2149  0078  2874               	goto	l103
  2150  0079                     u2610:
  2151  0079  287A               	goto	l1659
  2152                           opt subtitle "HI-TECH Software Omniscient Code Generator (Lite mode) build 49521"
  2153  007A                     l105:	
  2154                           opt subtitle "HI-TECH Software Omniscient Code Generator (Lite mode) build 49521"
  2155                           
  2156  007A                     l1659:	
  2157                           opt subtitle "HI-TECH Software Omniscient Code Generator (Lite mode) build 49521"
  2158  007A  3005               	movlw	low(05h)
  2159  007B  00F1               	movwf	(?_delay_s)
  2160  007C  3000               	movlw	high(05h)
  2161  007D  00F2               	movwf	((?_delay_s))+1
  2162  007E  3185  25D1  3180   	fcall	_delay_s
  2163  0081  2882               	goto	l1661
  2164                           opt subtitle "HI-TECH Software Omniscient Code Generator (Lite mode) build 49521"
  2165                           
  2166                           opt pagewidth 120
  2167  0082                     l106:	
  2168                           opt subtitle "HI-TECH Software Omniscient Code Generator (Lite mode) build 49521"
  2169                           
  2170  0082                     l1661:	
  2171                           opt subtitle "HI-TECH Software Omniscient Code Generator (Lite mode) build 49521"
  2172                           
  2173  0082  3182  22D5  3180   	fcall	_get_sensors
  2174                           opt subtitle "HI-TECH Software Omniscient Code Generator (Lite mode) build 49521"
  2175                           
  2176  0085                     l1663:	
  2177                           opt subtitle "HI-TECH Software Omniscient Code Generator (Lite mode) build 49521"
  2178  0085  187C               	btfsc	(_isDebug/8),(_isDebug)&7
  2179  0086  2888               	goto	u2621
  2180  0087  2889               	goto	u2620
  2181  0088                     u2621:
  2182  0088  2882               	goto	l1661
  2183  0089                     u2620:
  2184                           opt subtitle "HI-TECH Software Omniscient Code Generator (Lite mode) build 49521"
  2185                           
  2186  0089                     l1665:	
  2187                           opt subtitle "HI-TECH Software Omniscient Code Generator (Lite mode) build 49521"
  2188                           
  2189  0089  0020               	movlb 0	; select bank0
  2190  008A  185A               	btfsc	(_Sumo),0	;volatile
  2191  008B  288D               	goto	u2631
  2192  008C  288E               	goto	u2630
  2193  008D                     u2631:
  2194  008D  289B               	goto	l1673
  2195  008E                     u2630:
  2196                           opt subtitle "HI-TECH Software Omniscient Code Generator (Lite mode) build 49521"
  2197  008E                     l1667:	
  2198  008E  18DA               	btfsc	(_Sumo),1	;volatile
  2199  008F  2891               	goto	u2641
  2200  0090  2892               	goto	u2640
  2201  0091                     u2641:
  2202  0091  289B               	goto	l1673
  2203  0092                     u2640:
  2204                           opt subtitle "HI-TECH Software Omniscient Code Generator (Lite mode) build 49521"
  2205  0092                     l1669:	
  2206  0092  195A               	btfsc	(_Sumo),2	;volatile
  2207  0093  2895               	goto	u2651
  2208  0094  2896               	goto	u2650
  2209  0095                     u2651:
  2210  0095  289B               	goto	l1673
  2211  0096                     u2650:
  2212                           opt subtitle "HI-TECH Software Omniscient Code Generator (Lite mode) build 49521"
  2213  0096                     l1671:	
  2214  0096  1DDA               	btfss	(_Sumo),3	;volatile
  2215  0097  2899               	goto	u2661
  2216  0098  289A               	goto	u2660
  2217  0099                     u2661:
  2218  0099  2961               	goto	l1733
  2219  009A                     u2660:
  2220  009A  289B               	goto	l1673
  2221                           opt subtitle "HI-TECH Software Omniscient Code Generator (Lite mode) build 49521"
  2222  009B                     l110:	
  2223                           opt subtitle "HI-TECH Software Omniscient Code Generator (Lite mode) build 49521"
  2224                           
  2225  009B                     l1673:	
  2226                           opt subtitle "HI-TECH Software Omniscient Code Generator (Lite mode) build 49521"
  2227  009B  30CF               	movlw	((0 & ((1<<2)-1))<<4)|not (((1<<2)-1)<<4)
  2228  009C  05DA               	andwf	(_Sumo),f	;volatile
  2229  009D  2961               	goto	l1733
  2230                           opt subtitle "HI-TECH Software Omniscient Code Generator (Lite mode) build 49521"
  2231  009E                     l108:	
  2232                           opt subtitle "HI-TECH Software Omniscient Code Generator (Lite mode) build 49521"
  2233                           
  2234  009E  2961               	goto	l1733
  2235                           opt subtitle "HI-TECH Software Omniscient Code Generator (Lite mode) build 49521"
  2236                           
  2237                           opt pagewidth 120
  2238                           
  2239  009F                     l112:	
  2240                           opt subtitle "HI-TECH Software Omniscient Code Generator (Lite mode) build 49521"
  2241                           
  2242  009F  1C5A               	btfss	(_Sumo),0	;volatile
  2243  00A0  28A2               	goto	u2671
  2244  00A1  28A3               	goto	u2670
  2245  00A2                     u2671:
  2246  00A2  28B5               	goto	l113
  2247  00A3                     u2670:
  2248                           opt subtitle "HI-TECH Software Omniscient Code Generator (Lite mode) build 49521"
  2249  00A3                     l1675:	
  2250  00A3  1CDA               	btfss	(_Sumo),1	;volatile
  2251  00A4  28A6               	goto	u2681
  2252  00A5  28A7               	goto	u2680
  2253  00A6                     u2681:
  2254  00A6  28B5               	goto	l113
  2255  00A7                     u2680:
  2256                           opt subtitle "HI-TECH Software Omniscient Code Generator (Lite mode) build 49521"
  2257                           
  2258  00A7                     l1677:	
  2259                           opt subtitle "HI-TECH Software Omniscient Code Generator (Lite mode) build 49521"
  2260                           
  2261  00A7  3062               	movlw	(062h)
  2262  00A8  3184  24DC  3180   	fcall	_sumo_move
  2263                           opt subtitle "HI-TECH Software Omniscient Code Generator (Lite mode) build 49521"
  2264                           
  2265  00AB                     l1679:	
  2266                           opt subtitle "HI-TECH Software Omniscient Code Generator (Lite mode) build 49521"
  2267  00AB  302C               	movlw	low(012Ch)
  2268  00AC  00F1               	movwf	(?_delay_ms)
  2269  00AD  3001               	movlw	high(012Ch)
  2270  00AE  00F2               	movwf	((?_delay_ms))+1
  2271  00AF  3186  26F7  3180   	fcall	_delay_ms
  2272                           opt subtitle "HI-TECH Software Omniscient Code Generator (Lite mode) build 49521"
  2273                           
  2274  00B2                     l1681:	
  2275                           opt subtitle "HI-TECH Software Omniscient Code Generator (Lite mode) build 49521"
  2276  00B2  0020               	movlb 0	; select bank0
  2277  00B3  17DA               	bsf	(_Sumo),7	;volatile
  2278                           opt subtitle "HI-TECH Software Omniscient Code Generator (Lite mode) build 49521"
  2279                           
  2280  00B4  2910               	goto	l1709
  2281                           opt subtitle "HI-TECH Software Omniscient Code Generator (Lite mode) build 49521"
  2282                           
  2283  00B5                     l113:	
  2284                           opt subtitle "HI-TECH Software Omniscient Code Generator (Lite mode) build 49521"
  2285  00B5  1C5A               	btfss	(_Sumo),0	;volatile
  2286  00B6  28B8               	goto	u2691
  2287  00B7  28B9               	goto	u2690
  2288  00B8                     u2691:
  2289  00B8  28C7               	goto	l115
  2290  00B9                     u2690:
  2291                           opt subtitle "HI-TECH Software Omniscient Code Generator (Lite mode) build 49521"
  2292                           
  2293  00B9                     l1683:	
  2294                           opt subtitle "HI-TECH Software Omniscient Code Generator (Lite mode) build 49521"
  2295                           
  2296  00B9  3062               	movlw	(062h)
  2297  00BA  3184  24DC  3180   	fcall	_sumo_move
  2298                           opt subtitle "HI-TECH Software Omniscient Code Generator (Lite mode) build 49521"
  2299                           
  2300  00BD                     l1685:	
  2301                           opt subtitle "HI-TECH Software Omniscient Code Generator (Lite mode) build 49521"
  2302  00BD  302C               	movlw	low(012Ch)
  2303  00BE  00F1               	movwf	(?_delay_ms)
  2304  00BF  3001               	movlw	high(012Ch)
  2305  00C0  00F2               	movwf	((?_delay_ms))+1
  2306  00C1  3186  26F7  3180   	fcall	_delay_ms
  2307                           opt subtitle "HI-TECH Software Omniscient Code Generator (Lite mode) build 49521"
  2308                           
  2309  00C4                     l1687:	
  2310                           opt subtitle "HI-TECH Software Omniscient Code Generator (Lite mode) build 49521"
  2311  00C4  0020               	movlb 0	; select bank0
  2312  00C5  17DA               	bsf	(_Sumo),7	;volatile
  2313                           opt subtitle "HI-TECH Software Omniscient Code Generator (Lite mode) build 49521"
  2314                           
  2315  00C6  2910               	goto	l1709
  2316                           opt subtitle "HI-TECH Software Omniscient Code Generator (Lite mode) build 49521"
  2317                           
  2318  00C7                     l115:	
  2319                           opt subtitle "HI-TECH Software Omniscient Code Generator (Lite mode) build 49521"
  2320  00C7  1CDA               	btfss	(_Sumo),1	;volatile
  2321  00C8  28CA               	goto	u2701
  2322  00C9  28CB               	goto	u2700
  2323  00CA                     u2701:
  2324  00CA  28D9               	goto	l117
  2325  00CB                     u2700:
  2326                           opt subtitle "HI-TECH Software Omniscient Code Generator (Lite mode) build 49521"
  2327                           
  2328  00CB                     l1689:	
  2329                           opt subtitle "HI-TECH Software Omniscient Code Generator (Lite mode) build 49521"
  2330                           
  2331  00CB  3062               	movlw	(062h)
  2332  00CC  3184  24DC  3180   	fcall	_sumo_move
  2333                           opt subtitle "HI-TECH Software Omniscient Code Generator (Lite mode) build 49521"
  2334                           
  2335  00CF                     l1691:	
  2336                           opt subtitle "HI-TECH Software Omniscient Code Generator (Lite mode) build 49521"
  2337  00CF  302C               	movlw	low(012Ch)
  2338  00D0  00F1               	movwf	(?_delay_ms)
  2339  00D1  3001               	movlw	high(012Ch)
  2340  00D2  00F2               	movwf	((?_delay_ms))+1
  2341  00D3  3186  26F7  3180   	fcall	_delay_ms
  2342                           opt subtitle "HI-TECH Software Omniscient Code Generator (Lite mode) build 49521"
  2343                           
  2344  00D6                     l1693:	
  2345                           opt subtitle "HI-TECH Software Omniscient Code Generator (Lite mode) build 49521"
  2346  00D6  0020               	movlb 0	; select bank0
  2347  00D7  13DA               	bcf	(_Sumo),7	;volatile
  2348                           opt subtitle "HI-TECH Software Omniscient Code Generator (Lite mode) build 49521"
  2349                           
  2350  00D8  2910               	goto	l1709
  2351                           opt subtitle "HI-TECH Software Omniscient Code Generator (Lite mode) build 49521"
  2352                           
  2353  00D9                     l117:	
  2354                           opt subtitle "HI-TECH Software Omniscient Code Generator (Lite mode) build 49521"
  2355  00D9  1D5A               	btfss	(_Sumo),2	;volatile
  2356  00DA  28DC               	goto	u2711
  2357  00DB  28DD               	goto	u2710
  2358  00DC                     u2711:
  2359  00DC  28E6               	goto	l119
  2360  00DD                     u2710:
  2361                           opt subtitle "HI-TECH Software Omniscient Code Generator (Lite mode) build 49521"
  2362  00DD                     l1695:	
  2363  00DD  1DDA               	btfss	(_Sumo),3	;volatile
  2364  00DE  28E0               	goto	u2721
  2365  00DF  28E1               	goto	u2720
  2366  00E0                     u2721:
  2367  00E0  28E6               	goto	l119
  2368  00E1                     u2720:
  2369                           opt subtitle "HI-TECH Software Omniscient Code Generator (Lite mode) build 49521"
  2370                           
  2371  00E1                     l1697:	
  2372                           opt subtitle "HI-TECH Software Omniscient Code Generator (Lite mode) build 49521"
  2373                           
  2374  00E1  3066               	movlw	(066h)
  2375  00E2  3184  24DC  3180   	fcall	_sumo_move
  2376                           opt subtitle "HI-TECH Software Omniscient Code Generator (Lite mode) build 49521"
  2377                           
  2378  00E5  2910               	goto	l1709
  2379                           opt subtitle "HI-TECH Software Omniscient Code Generator (Lite mode) build 49521"
  2380                           
  2381  00E6                     l119:	
  2382                           opt subtitle "HI-TECH Software Omniscient Code Generator (Lite mode) build 49521"
  2383  00E6  195A               	btfsc	(_Sumo),2	;volatile
  2384  00E7  28E9               	goto	u2731
  2385  00E8  28EA               	goto	u2730
  2386  00E9                     u2731:
  2387  00E9  28EF               	goto	l1701
  2388  00EA                     u2730:
  2389                           opt subtitle "HI-TECH Software Omniscient Code Generator (Lite mode) build 49521"
  2390  00EA                     l1699:	
  2391  00EA  1DDA               	btfss	(_Sumo),3	;volatile
  2392  00EB  28ED               	goto	u2741
  2393  00EC  28EE               	goto	u2740
  2394  00ED                     u2741:
  2395  00ED  28FB               	goto	l121
  2396  00EE                     u2740:
  2397  00EE  28EF               	goto	l1701
  2398                           opt subtitle "HI-TECH Software Omniscient Code Generator (Lite mode) build 49521"
  2399  00EF                     l123:	
  2400                           opt subtitle "HI-TECH Software Omniscient Code Generator (Lite mode) build 49521"
  2401                           
  2402  00EF                     l1701:	
  2403                           opt subtitle "HI-TECH Software Omniscient Code Generator (Lite mode) build 49521"
  2404                           
  2405  00EF  3072               	movlw	(072h)
  2406  00F0  3184  24DC  3180   	fcall	_sumo_move
  2407                           opt subtitle "HI-TECH Software Omniscient Code Generator (Lite mode) build 49521"
  2408                           
  2409  00F3                     l1703:	
  2410                           opt subtitle "HI-TECH Software Omniscient Code Generator (Lite mode) build 49521"
  2411  00F3  30B9               	movlw	low(0B9h)
  2412  00F4  00F1               	movwf	(?_delay_ms)
  2413  00F5  3000               	movlw	high(0B9h)
  2414  00F6  00F2               	movwf	((?_delay_ms))+1
  2415  00F7  3186  26F7  3180   	fcall	_delay_ms
  2416                           opt subtitle "HI-TECH Software Omniscient Code Generator (Lite mode) build 49521"
  2417                           
  2418  00FA  2910               	goto	l1709
  2419                           opt subtitle "HI-TECH Software Omniscient Code Generator (Lite mode) build 49521"
  2420                           
  2421  00FB                     l121:	
  2422                           opt subtitle "HI-TECH Software Omniscient Code Generator (Lite mode) build 49521"
  2423  00FB  1DDA               	btfss	(_Sumo),3	;volatile
  2424  00FC  28FE               	goto	u2751
  2425  00FD  28FF               	goto	u2750
  2426  00FE                     u2751:
  2427  00FE  2910               	goto	l1709
  2428  00FF                     u2750:
  2429                           opt subtitle "HI-TECH Software Omniscient Code Generator (Lite mode) build 49521"
  2430                           
  2431  00FF                     l1705:	
  2432                           opt subtitle "HI-TECH Software Omniscient Code Generator (Lite mode) build 49521"
  2433                           
  2434  00FF  306C               	movlw	(06Ch)
  2435  0100  3184  24DC  3180   	fcall	_sumo_move
  2436                           opt subtitle "HI-TECH Software Omniscient Code Generator (Lite mode) build 49521"
  2437                           
  2438  0103                     l1707:	
  2439                           opt subtitle "HI-TECH Software Omniscient Code Generator (Lite mode) build 49521"
  2440  0103  30B9               	movlw	low(0B9h)
  2441  0104  00F1               	movwf	(?_delay_ms)
  2442  0105  3000               	movlw	high(0B9h)
  2443  0106  00F2               	movwf	((?_delay_ms))+1
  2444  0107  3186  26F7  3180   	fcall	_delay_ms
  2445  010A  2910               	goto	l1709
  2446                           opt subtitle "HI-TECH Software Omniscient Code Generator (Lite mode) build 49521"
  2447                           
  2448  010B                     l125:	
  2449  010B  2910               	goto	l1709
  2450                           opt subtitle "HI-TECH Software Omniscient Code Generator (Lite mode) build 49521"
  2451                           
  2452  010C                     l124:	
  2453  010C  2910               	goto	l1709
  2454                           opt subtitle "HI-TECH Software Omniscient Code Generator (Lite mode) build 49521"
  2455  010D                     l120:	
  2456  010D  2910               	goto	l1709
  2457                           opt subtitle "HI-TECH Software Omniscient Code Generator (Lite mode) build 49521"
  2458  010E                     l118:	
  2459  010E  2910               	goto	l1709
  2460                           opt subtitle "HI-TECH Software Omniscient Code Generator (Lite mode) build 49521"
  2461  010F                     l116:	
  2462  010F  2910               	goto	l1709
  2463                           opt subtitle "HI-TECH Software Omniscient Code Generator (Lite mode) build 49521"
  2464  0110                     l114:	
  2465                           opt subtitle "HI-TECH Software Omniscient Code Generator (Lite mode) build 49521"
  2466  0110                     l1709:	
  2467                           opt subtitle "HI-TECH Software Omniscient Code Generator (Lite mode) build 49521"
  2468                           
  2469  0110  0020               	movlb 0	; select bank0
  2470  0111  085A               	movf	(_Sumo),w	;volatile
  2471  0112  39CF               	andlw	not (((1<<2)-1)<<4)
  2472  0113  3810               	iorlw	(01h & ((1<<2)-1))<<4
  2473  0114  00DA               	movwf	(_Sumo)	;volatile
  2474                           opt subtitle "HI-TECH Software Omniscient Code Generator (Lite mode) build 49521"
  2475                           
  2476  0115  2882               	goto	l1661
  2477                           opt subtitle "HI-TECH Software Omniscient Code Generator (Lite mode) build 49521"
  2478                           
  2479                           opt pagewidth 120
  2480  0116                     l127:	
  2481                           opt subtitle "HI-TECH Software Omniscient Code Generator (Lite mode) build 49521"
  2482                           
  2483  0116                     l1711:	
  2484                           opt subtitle "HI-TECH Software Omniscient Code Generator (Lite mode) build 49521"
  2485  0116  084F               	movf	(_mAttackThreshold+1),w
  2486  0117  3A80               	xorlw	80h
  2487  0118  00CD               	movwf	(??_main+0)+0
  2488  0119  085C               	movf	(_rangeAverage+1),w
  2489  011A  3A80               	xorlw	80h
  2490  011B  024D               	subwf	(??_main+0)+0,w
  2491  011C  1D03               	skipz
  2492  011D  2920               	goto	u2765
  2493  011E  085B               	movf	(_rangeAverage),w
  2494  011F  024E               	subwf	(_mAttackThreshold),w
  2495  0120                     u2765:
  2496                           opt subtitle "HI-TECH Software Omniscient Code Generator (Lite mode) build 49521"
  2497  0120  1803               	skipnc
  2498  0121  2923               	goto	u2761
  2499  0122  2924               	goto	u2760
  2500  0123                     u2761:
  2501  0123  2928               	goto	l1715
  2502  0124                     u2760:
  2503                           opt subtitle "HI-TECH Software Omniscient Code Generator (Lite mode) build 49521"
  2504                           
  2505  0124                     l1713:	
  2506                           opt subtitle "HI-TECH Software Omniscient Code Generator (Lite mode) build 49521"
  2507                           
  2508  0124  3030               	movlw	(03h & ((1<<2)-1))<<4
  2509  0125  0020               	movlb 0	; select bank0
  2510  0126  04DA               	iorwf	(_Sumo),f	;volatile
  2511  0127  2928               	goto	l1715
  2512                           opt subtitle "HI-TECH Software Omniscient Code Generator (Lite mode) build 49521"
  2513                           
  2514  0128                     l128:	
  2515                           opt subtitle "HI-TECH Software Omniscient Code Generator (Lite mode) build 49521"
  2516                           
  2517  0128                     l1715:	
  2518                           opt subtitle "HI-TECH Software Omniscient Code Generator (Lite mode) build 49521"
  2519                           
  2520  0128  0020               	movlb 0	; select bank0
  2521  0129  1F5A               	btfss	(_Sumo),6	;volatile
  2522  012A  292C               	goto	u2771
  2523  012B  292D               	goto	u2770
  2524  012C                     u2771:
  2525  012C  2935               	goto	l129
  2526  012D                     u2770:
  2527                           opt subtitle "HI-TECH Software Omniscient Code Generator (Lite mode) build 49521"
  2528                           
  2529  012D                     l1717:	
  2530                           opt subtitle "HI-TECH Software Omniscient Code Generator (Lite mode) build 49521"
  2531                           
  2532  012D  1E8F               	btfss	(15),5	;volatile
  2533  012E  2930               	goto	u2781
  2534  012F  2931               	goto	u2780
  2535  0130                     u2781:
  2536  0130  2933               	goto	l130
  2537  0131                     u2780:
  2538                           opt subtitle "HI-TECH Software Omniscient Code Generator (Lite mode) build 49521"
  2539                           
  2540  0131                     l1719:	
  2541                           opt subtitle "HI-TECH Software Omniscient Code Generator (Lite mode) build 49521"
  2542  0131  17DA               	bsf	(_Sumo),7	;volatile
  2543  0132  2934               	goto	l131
  2544                           opt subtitle "HI-TECH Software Omniscient Code Generator (Lite mode) build 49521"
  2545                           
  2546  0133                     l130:	
  2547                           opt subtitle "HI-TECH Software Omniscient Code Generator (Lite mode) build 49521"
  2548                           
  2549                           opt pagewidth 120
  2550  0133  13DA               	bcf	(_Sumo),7	;volatile
  2551                           opt subtitle "HI-TECH Software Omniscient Code Generator (Lite mode) build 49521"
  2552  0134                     l131:	
  2553                           opt subtitle "HI-TECH Software Omniscient Code Generator (Lite mode) build 49521"
  2554                           
  2555  0134  135A               	bcf	(_Sumo),6	;volatile
  2556                           opt subtitle "HI-TECH Software Omniscient Code Generator (Lite mode) build 49521"
  2557                           
  2558  0135                     l129:	
  2559                           opt subtitle "HI-TECH Software Omniscient Code Generator (Lite mode) build 49521"
  2560                           
  2561                           opt pagewidth 120
  2562  0135  1FDA               	btfss	(_Sumo),7	;volatile
  2563  0136  2938               	goto	u2791
  2564  0137  2939               	goto	u2790
  2565  0138                     u2791:
  2566  0138  293E               	goto	l1723
  2567  0139                     u2790:
  2568                           opt subtitle "HI-TECH Software Omniscient Code Generator (Lite mode) build 49521"
  2569                           
  2570  0139                     l1721:	
  2571                           opt subtitle "HI-TECH Software Omniscient Code Generator (Lite mode) build 49521"
  2572  0139  3072               	movlw	(072h)
  2573  013A  3184  24DC  3180   	fcall	_sumo_move
  2574  013D  2882               	goto	l1661
  2575                           opt subtitle "HI-TECH Software Omniscient Code Generator (Lite mode) build 49521"
  2576                           
  2577  013E                     l132:	
  2578                           opt subtitle "HI-TECH Software Omniscient Code Generator (Lite mode) build 49521"
  2579                           
  2580  013E                     l1723:	
  2581                           opt subtitle "HI-TECH Software Omniscient Code Generator (Lite mode) build 49521"
  2582                           
  2583  013E  306C               	movlw	(06Ch)
  2584  013F  3184  24DC  3180   	fcall	_sumo_move
  2585  0142  2882               	goto	l1661
  2586                           opt subtitle "HI-TECH Software Omniscient Code Generator (Lite mode) build 49521"
  2587  0143                     l133:	
  2588                           opt subtitle "HI-TECH Software Omniscient Code Generator (Lite mode) build 49521"
  2589                           
  2590  0143  2882               	goto	l1661
  2591                           opt subtitle "HI-TECH Software Omniscient Code Generator (Lite mode) build 49521"
  2592                           
  2593                           opt pagewidth 120
  2594  0144                     l134:	
  2595                           opt subtitle "HI-TECH Software Omniscient Code Generator (Lite mode) build 49521"
  2596                           
  2597  0144                     l1725:	
  2598                           opt subtitle "HI-TECH Software Omniscient Code Generator (Lite mode) build 49521"
  2599  0144  3066               	movlw	(066h)
  2600  0145  3184  24DC  3180   	fcall	_sumo_move
  2601                           opt subtitle "HI-TECH Software Omniscient Code Generator (Lite mode) build 49521"
  2602                           
  2603  0148                     l1727:	
  2604                           opt subtitle "HI-TECH Software Omniscient Code Generator (Lite mode) build 49521"
  2605  0148  0020               	movlb 0	; select bank0
  2606  0149  085C               	movf	(_rangeAverage+1),w
  2607  014A  3A80               	xorlw	80h
  2608  014B  00CD               	movwf	(??_main+0)+0
  2609  014C  0859               	movf	(_mTargetThreshold+1),w
  2610  014D  3A80               	xorlw	80h
  2611  014E  024D               	subwf	(??_main+0)+0,w
  2612  014F  1D03               	skipz
  2613  0150  2953               	goto	u2805
  2614  0151  0858               	movf	(_mTargetThreshold),w
  2615  0152  025B               	subwf	(_rangeAverage),w
  2616  0153                     u2805:
  2617                           opt subtitle "HI-TECH Software Omniscient Code Generator (Lite mode) build 49521"
  2618  0153  1803               	skipnc
  2619  0154  2956               	goto	u2801
  2620  0155  2957               	goto	u2800
  2621  0156                     u2801:
  2622  0156  2882               	goto	l1661
  2623  0157                     u2800:
  2624                           opt subtitle "HI-TECH Software Omniscient Code Generator (Lite mode) build 49521"
  2625                           
  2626  0157                     l1729:	
  2627                           opt subtitle "HI-TECH Software Omniscient Code Generator (Lite mode) build 49521"
  2628                           
  2629  0157  0020               	movlb 0	; select bank0
  2630  0158  085A               	movf	(_Sumo),w	;volatile
  2631  0159  39CF               	andlw	not (((1<<2)-1)<<4)
  2632  015A  3810               	iorlw	(01h & ((1<<2)-1))<<4
  2633  015B  00DA               	movwf	(_Sumo)	;volatile
  2634  015C  2882               	goto	l1661
  2635                           opt subtitle "HI-TECH Software Omniscient Code Generator (Lite mode) build 49521"
  2636                           
  2637  015D                     l135:	
  2638                           opt subtitle "HI-TECH Software Omniscient Code Generator (Lite mode) build 49521"
  2639                           
  2640                           opt pagewidth 120
  2641  015D  2882               	goto	l1661
  2642                           opt subtitle "HI-TECH Software Omniscient Code Generator (Lite mode) build 49521"
  2643                           
  2644                           opt pagewidth 120
  2645  015E                     l136:	
  2646                           opt subtitle "HI-TECH Software Omniscient Code Generator (Lite mode) build 49521"
  2647                           
  2648  015E                     l1731:	
  2649                           opt subtitle "HI-TECH Software Omniscient Code Generator (Lite mode) build 49521"
  2650  015E  30CF               	movlw	((0 & ((1<<2)-1))<<4)|not (((1<<2)-1)<<4)
  2651  015F  05DA               	andwf	(_Sumo),f	;volatile
  2652                           opt subtitle "HI-TECH Software Omniscient Code Generator (Lite mode) build 49521"
  2653                           
  2654  0160  2882               	goto	l1661
  2655                           opt subtitle "HI-TECH Software Omniscient Code Generator (Lite mode) build 49521"
  2656                           
  2657  0161                     l111:	
  2658                           opt subtitle "HI-TECH Software Omniscient Code Generator (Lite mode) build 49521"
  2659  0161                     l1733:	
  2660  0161  0E5A               	swapf	(_Sumo),w	;volatile
  2661  0162  3903               	andlw	(1<<2)-1
  2662                           opt subtitle "HI-TECH Software Omniscient Code Generator (Lite mode) build 49521"
  2663                           
  2664                           opt pagewidth 120
  2665                           
  2666                           	opt lm
  2667                           
  2668                           	processor	16F1937
  2669                           clrc	macro
  2670                           	bcf	3,0
  2671                           	endm
  2672                           clrz	macro
  2673                           	bcf	3,2
  2674                           	endm
  2675  0163  3A00               	xorlw	0^0	; case 0
  2676  0164  1903               	skipnz
  2677  0165  289F               	goto	l112
  2678  0166  3A01               	xorlw	1^0	; case 1
  2679  0167  1903               	skipnz
  2680  0168  2916               	goto	l1711
  2681  0169  3A02               	xorlw	3^1	; case 3
  2682  016A  1903               	skipnz
  2683  016B  2944               	goto	l1725
  2684  016C  295E               	goto	l1731
  2685                           opt subtitle "HI-TECH Software Omniscient Code Generator (Lite mode) build 49521"
  2686                           
  2687                           opt pagewidth 120
  2688                           
  2689  016D                     l126:	
  2690  016D  2882               	goto	l1661
  2691                           opt subtitle "HI-TECH Software Omniscient Code Generator (Lite mode) build 49521"
  2692                           
  2693  016E                     l107:	
  2694                           opt subtitle "HI-TECH Software Omniscient Code Generator (Lite mode) build 49521"
  2695                           
  2696                           opt pagewidth 120
  2697  016E  2882               	goto	l1661
  2698                           opt subtitle "HI-TECH Software Omniscient Code Generator (Lite mode) build 49521"
  2699  016F                     l137:	
  2700                           opt subtitle "HI-TECH Software Omniscient Code Generator (Lite mode) build 49521"
  2701                           
  2702  016F                     l138:	
  2703                           opt subtitle "HI-TECH Software Omniscient Code Generator (Lite mode) build 49521"
  2704  016F  3180  280B         	ljmp	start
  2705                           opt subtitle "HI-TECH Software Omniscient Code Generator (Lite mode) build 49521"
  2706                           
  2707  0171                     	__end_of_main:
  2708                           opt subtitle "HI-TECH Software Omniscient Code Generator (Lite mode) build 49521"
  2709                           
  2710                           opt pagewidth 120
  2711                           
  2712                           	opt lm
  2713                           
  2714                           	processor	16F1937
  2715                           clrc	macro
  2716                           	bcf	3,0
  2717                           	endm
  2718                           clrz	macro
  2719                           	bcf	3,2
  2720                           	endm
  2721                           setc	macro
  2722                           	bsf	3,0
  2723                           	endm
  2724                           setz	macro
  2725                           	bsf	3,2
  2726                           	endm
  2727                           skipc	macro
  2728                           	btfss	3,0
  2729                           	endm
  2730                           skipz	macro
  2731                           	btfss	3,2
  2732                           	endm
  2733                           skipnc	macro
  2734                           	btfsc	3,0
  2735                           	endm
  2736                           skipnz	macro
  2737                           	btfsc	3,2
  2738                           	endm
  2739                           indf	equ	0
  2740                           indf0	equ	0
  2741                           indf1	equ	1
  2742                           pc	equ	2
  2743  0428                     __ptext439:	;psect for function _init_sumo
  2744                           opt subtitle "HI-TECH Software Omniscient Code Generator (Lite mode) build 49521"
  2745                           
  2746                           opt pagewidth 120
  2747                           
  2748  00B4                     	__size_of_init_sumo	equ	__end_of_init_sumo-_init_sumo
  2749                           opt subtitle "HI-TECH Software Omniscient Code Generator (Lite mode) build 49521"
  2750  0428                     _init_sumo:	
  2751                           opt subtitle "HI-TECH Software Omniscient Code Generator (Lite mode) build 49521"
  2752                           
  2753                           opt pagewidth 120
  2754                           
  2755  0428                     l1735:	
  2756                           opt subtitle "HI-TECH Software Omniscient Code Generator (Lite mode) build 49521"
  2757  0428  30FC               	movlw	((0 & ((1<<2)-1))<<0)|not (((1<<2)-1)<<0)
  2758  0429  0021               	movlb 1	; select bank1
  2759  042A  0599               	andwf	(153)^080h,f	;volatile
  2760                           opt subtitle "HI-TECH Software Omniscient Code Generator (Lite mode) build 49521"
  2761                           
  2762  042B  3078               	movlw	(0Fh & ((1<<4)-1))<<3
  2763  042C  0499               	iorwf	(153)^080h,f	;volatile
  2764                           opt subtitle "HI-TECH Software Omniscient Code Generator (Lite mode) build 49521"
  2765                           
  2766  042D                     l1737:	
  2767                           opt subtitle "HI-TECH Software Omniscient Code Generator (Lite mode) build 49521"
  2768  042D  1399               	bcf	(153)^080h,7	;volatile
  2769                           opt subtitle "HI-TECH Software Omniscient Code Generator (Lite mode) build 49521"
  2770                           
  2771  042E                     l1739:	
  2772                           opt subtitle "HI-TECH Software Omniscient Code Generator (Lite mode) build 49521"
  2773  042E  0022               	movlb 2	; select bank2
  2774  042F  150E               	bsf	(270)^0100h,2	;volatile
  2775  0430  190E               	btfsc	(270)^0100h,2	;volatile
  2776  0431  2C33               	goto	u2811
  2777  0432  2C36               	goto	u2810
  2778                           opt subtitle "HI-TECH Software Omniscient Code Generator (Lite mode) build 49521"
  2779  0433                     u2811:
  2780  0433  0022               	movlb 2	; select bank2
  2781  0434  150F               	bsf	(271)^0100h,2	;volatile
  2782  0435  2C38               	goto	u2824
  2783  0436                     u2810:
  2784  0436  0022               	movlb 2	; select bank2
  2785  0437  110F               	bcf	(271)^0100h,2	;volatile
  2786  0438                     u2824:
  2787  0438  190F               	btfsc	(271)^0100h,2	;volatile
  2788  0439  2C3B               	goto	u2821
  2789  043A  2C3E               	goto	u2820
  2790                           opt subtitle "HI-TECH Software Omniscient Code Generator (Lite mode) build 49521"
  2791  043B                     u2821:
  2792  043B  0022               	movlb 2	; select bank2
  2793  043C  158F               	bsf	(271)^0100h,3	;volatile
  2794  043D  2C40               	goto	u2834
  2795  043E                     u2820:
  2796  043E  0022               	movlb 2	; select bank2
  2797  043F  118F               	bcf	(271)^0100h,3	;volatile
  2798  0440                     u2834:
  2799  0440  198F               	btfsc	(271)^0100h,3	;volatile
  2800  0441  2C43               	goto	u2831
  2801  0442  2C46               	goto	u2830
  2802                           opt subtitle "HI-TECH Software Omniscient Code Generator (Lite mode) build 49521"
  2803  0443                     u2831:
  2804  0443  0022               	movlb 2	; select bank2
  2805  0444  148F               	bsf	(271)^0100h,1	;volatile
  2806  0445  2C48               	goto	u2844
  2807  0446                     u2830:
  2808  0446  0022               	movlb 2	; select bank2
  2809  0447  108F               	bcf	(271)^0100h,1	;volatile
  2810  0448                     u2844:
  2811  0448  188F               	btfsc	(271)^0100h,1	;volatile
  2812  0449  2C4B               	goto	u2841
  2813  044A  2C4E               	goto	u2840
  2814                           opt subtitle "HI-TECH Software Omniscient Code Generator (Lite mode) build 49521"
  2815  044B                     u2841:
  2816  044B  0022               	movlb 2	; select bank2
  2817  044C  140F               	bsf	(271)^0100h,0	;volatile
  2818  044D  2C50               	goto	u2854
  2819  044E                     u2840:
  2820  044E  0022               	movlb 2	; select bank2
  2821  044F  100F               	bcf	(271)^0100h,0	;volatile
  2822  0450                     u2854:
  2823                           opt subtitle "HI-TECH Software Omniscient Code Generator (Lite mode) build 49521"
  2824                           
  2825  0450                     l1741:	
  2826                           opt subtitle "HI-TECH Software Omniscient Code Generator (Lite mode) build 49521"
  2827  0450  0021               	movlb 1	; select bank1
  2828  0451  110E               	bcf	(142)^080h,2	;volatile
  2829  0452  110F               	bcf	(143)^080h,2	;volatile
  2830  0453  118F               	bcf	(143)^080h,3	;volatile
  2831  0454  108F               	bcf	(143)^080h,1	;volatile
  2832  0455  100F               	bcf	(143)^080h,0	;volatile
  2833                           opt subtitle "HI-TECH Software Omniscient Code Generator (Lite mode) build 49521"
  2834                           
  2835  0456                     l1743:	
  2836                           opt subtitle "HI-TECH Software Omniscient Code Generator (Lite mode) build 49521"
  2837  0456  168F               	bsf	(143)^080h,5	;volatile
  2838                           opt subtitle "HI-TECH Software Omniscient Code Generator (Lite mode) build 49521"
  2839                           
  2840  0457                     l1745:	
  2841                           opt subtitle "HI-TECH Software Omniscient Code Generator (Lite mode) build 49521"
  2842  0457  0023               	movlb 3	; select bank3
  2843  0458  128F               	bcf	(399)^0180h,5	;volatile
  2844                           opt subtitle "HI-TECH Software Omniscient Code Generator (Lite mode) build 49521"
  2845                           
  2846  0459                     l1747:	
  2847                           opt subtitle "HI-TECH Software Omniscient Code Generator (Lite mode) build 49521"
  2848  0459  0021               	movlb 1	; select bank1
  2849  045A  160F               	bsf	(143)^080h,4	;volatile
  2850                           opt subtitle "HI-TECH Software Omniscient Code Generator (Lite mode) build 49521"
  2851                           
  2852  045B                     l1749:	
  2853                           opt subtitle "HI-TECH Software Omniscient Code Generator (Lite mode) build 49521"
  2854  045B  0023               	movlb 3	; select bank3
  2855  045C  120F               	bcf	(399)^0180h,4	;volatile
  2856                           opt subtitle "HI-TECH Software Omniscient Code Generator (Lite mode) build 49521"
  2857                           
  2858  045D                     l1751:	
  2859                           opt subtitle "HI-TECH Software Omniscient Code Generator (Lite mode) build 49521"
  2860  045D  0020               	movlb 0	; select bank0
  2861  045E  1E0F               	btfss	(15),4	;volatile
  2862  045F  2C61               	goto	u2861
  2863  0460  2C62               	goto	u2860
  2864  0461                     u2861:
  2865  0461  2C63               	goto	l141
  2866  0462                     u2860:
  2867                           opt subtitle "HI-TECH Software Omniscient Code Generator (Lite mode) build 49521"
  2868                           
  2869  0462                     l1753:	
  2870                           opt subtitle "HI-TECH Software Omniscient Code Generator (Lite mode) build 49521"
  2871                           
  2872  0462  147C               	bsf	(_isDebug/8),(_isDebug)&7
  2873                           opt subtitle "HI-TECH Software Omniscient Code Generator (Lite mode) build 49521"
  2874                           
  2875  0463                     l141:	
  2876                           opt subtitle "HI-TECH Software Omniscient Code Generator (Lite mode) build 49521"
  2877                           
  2878                           opt pagewidth 120
  2879  0463  0021               	movlb 1	; select bank1
  2880  0464  1410               	bsf	(144)^080h,0	;volatile
  2881  0465  1810               	btfsc	(144)^080h,0	;volatile
  2882  0466  2C68               	goto	u2871
  2883  0467  2C6B               	goto	u2870
  2884                           opt subtitle "HI-TECH Software Omniscient Code Generator (Lite mode) build 49521"
  2885  0468                     u2871:
  2886  0468  0021               	movlb 1	; select bank1
  2887  0469  168C               	bsf	(140)^080h,5	;volatile
  2888  046A  2C6D               	goto	u2884
  2889  046B                     u2870:
  2890  046B  0021               	movlb 1	; select bank1
  2891  046C  128C               	bcf	(140)^080h,5	;volatile
  2892  046D                     u2884:
  2893  046D  1A8C               	btfsc	(140)^080h,5	;volatile
  2894  046E  2C70               	goto	u2881
  2895  046F  2C73               	goto	u2880
  2896                           opt subtitle "HI-TECH Software Omniscient Code Generator (Lite mode) build 49521"
  2897  0470                     u2881:
  2898  0470  0021               	movlb 1	; select bank1
  2899  0471  148C               	bsf	(140)^080h,1	;volatile
  2900  0472  2C75               	goto	u2894
  2901  0473                     u2880:
  2902  0473  0021               	movlb 1	; select bank1
  2903  0474  108C               	bcf	(140)^080h,1	;volatile
  2904  0475                     u2894:
  2905  0475  188C               	btfsc	(140)^080h,1	;volatile
  2906  0476  2C78               	goto	u2891
  2907  0477  2C7B               	goto	u2890
  2908                           opt subtitle "HI-TECH Software Omniscient Code Generator (Lite mode) build 49521"
  2909  0478                     u2891:
  2910  0478  0021               	movlb 1	; select bank1
  2911  0479  158C               	bsf	(140)^080h,3	;volatile
  2912  047A  2C7D               	goto	u2904
  2913  047B                     u2890:
  2914  047B  0021               	movlb 1	; select bank1
  2915  047C  118C               	bcf	(140)^080h,3	;volatile
  2916  047D                     u2904:
  2917  047D  198C               	btfsc	(140)^080h,3	;volatile
  2918  047E  2C80               	goto	u2901
  2919  047F  2C83               	goto	u2900
  2920                           opt subtitle "HI-TECH Software Omniscient Code Generator (Lite mode) build 49521"
  2921  0480                     u2901:
  2922  0480  0021               	movlb 1	; select bank1
  2923  0481  150C               	bsf	(140)^080h,2	;volatile
  2924  0482  2C85               	goto	u2914
  2925  0483                     u2900:
  2926  0483  0021               	movlb 1	; select bank1
  2927  0484  110C               	bcf	(140)^080h,2	;volatile
  2928  0485                     u2914:
  2929  0485  190C               	btfsc	(140)^080h,2	;volatile
  2930  0486  2C88               	goto	u2911
  2931  0487  2C8B               	goto	u2910
  2932                           opt subtitle "HI-TECH Software Omniscient Code Generator (Lite mode) build 49521"
  2933  0488                     u2911:
  2934  0488  0021               	movlb 1	; select bank1
  2935  0489  140C               	bsf	(140)^080h,0	;volatile
  2936  048A  2C8D               	goto	u2924
  2937  048B                     u2910:
  2938  048B  0021               	movlb 1	; select bank1
  2939  048C  100C               	bcf	(140)^080h,0	;volatile
  2940  048D                     u2924:
  2941                           opt subtitle "HI-TECH Software Omniscient Code Generator (Lite mode) build 49521"
  2942                           
  2943  048D  0023               	movlb 3	; select bank3
  2944  048E  1410               	bsf	(400)^0180h,0	;volatile
  2945  048F  1810               	btfsc	(400)^0180h,0	;volatile
  2946  0490  2C92               	goto	u2931
  2947  0491  2C95               	goto	u2930
  2948                           opt subtitle "HI-TECH Software Omniscient Code Generator (Lite mode) build 49521"
  2949  0492                     u2931:
  2950  0492  0023               	movlb 3	; select bank3
  2951  0493  168C               	bsf	(396)^0180h,5	;volatile
  2952  0494  2C97               	goto	u2944
  2953  0495                     u2930:
  2954  0495  0023               	movlb 3	; select bank3
  2955  0496  128C               	bcf	(396)^0180h,5	;volatile
  2956  0497                     u2944:
  2957  0497  1A8C               	btfsc	(396)^0180h,5	;volatile
  2958  0498  2C9A               	goto	u2941
  2959  0499  2C9D               	goto	u2940
  2960                           opt subtitle "HI-TECH Software Omniscient Code Generator (Lite mode) build 49521"
  2961  049A                     u2941:
  2962  049A  0023               	movlb 3	; select bank3
  2963  049B  148C               	bsf	(396)^0180h,1	;volatile
  2964  049C  2C9F               	goto	u2954
  2965  049D                     u2940:
  2966  049D  0023               	movlb 3	; select bank3
  2967  049E  108C               	bcf	(396)^0180h,1	;volatile
  2968  049F                     u2954:
  2969  049F  188C               	btfsc	(396)^0180h,1	;volatile
  2970  04A0  2CA2               	goto	u2951
  2971  04A1  2CA5               	goto	u2950
  2972                           opt subtitle "HI-TECH Software Omniscient Code Generator (Lite mode) build 49521"
  2973  04A2                     u2951:
  2974  04A2  0023               	movlb 3	; select bank3
  2975  04A3  158C               	bsf	(396)^0180h,3	;volatile
  2976  04A4  2CA7               	goto	u2964
  2977  04A5                     u2950:
  2978  04A5  0023               	movlb 3	; select bank3
  2979  04A6  118C               	bcf	(396)^0180h,3	;volatile
  2980  04A7                     u2964:
  2981  04A7  198C               	btfsc	(396)^0180h,3	;volatile
  2982  04A8  2CAA               	goto	u2961
  2983  04A9  2CAD               	goto	u2960
  2984                           opt subtitle "HI-TECH Software Omniscient Code Generator (Lite mode) build 49521"
  2985  04AA                     u2961:
  2986  04AA  0023               	movlb 3	; select bank3
  2987  04AB  150C               	bsf	(396)^0180h,2	;volatile
  2988  04AC  2CAF               	goto	u2974
  2989  04AD                     u2960:
  2990  04AD  0023               	movlb 3	; select bank3
  2991  04AE  110C               	bcf	(396)^0180h,2	;volatile
  2992  04AF                     u2974:
  2993  04AF  190C               	btfsc	(396)^0180h,2	;volatile
  2994  04B0  2CB2               	goto	u2971
  2995  04B1  2CB5               	goto	u2970
  2996                           opt subtitle "HI-TECH Software Omniscient Code Generator (Lite mode) build 49521"
  2997  04B2                     u2971:
  2998  04B2  0023               	movlb 3	; select bank3
  2999  04B3  140C               	bsf	(396)^0180h,0	;volatile
  3000  04B4  2CB7               	goto	u2984
  3001  04B5                     u2970:
  3002  04B5  0023               	movlb 3	; select bank3
  3003  04B6  100C               	bcf	(396)^0180h,0	;volatile
  3004  04B7                     u2984:
  3005                           opt subtitle "HI-TECH Software Omniscient Code Generator (Lite mode) build 49521"
  3006                           
  3007  04B7                     l1755:	
  3008                           opt subtitle "HI-TECH Software Omniscient Code Generator (Lite mode) build 49521"
  3009  04B7  3187  274A  3184   	fcall	_OpenADC
  3010                           opt subtitle "HI-TECH Software Omniscient Code Generator (Lite mode) build 49521"
  3011                           
  3012  04BA                     l1757:	
  3013                           opt subtitle "HI-TECH Software Omniscient Code Generator (Lite mode) build 49521"
  3014  04BA  1C7C               	btfss	(_isDebug/8),(_isDebug)&7
  3015  04BB  2CBD               	goto	u2991
  3016  04BC  2CBE               	goto	u2990
  3017  04BD                     u2991:
  3018  04BD  2CCD               	goto	l1765
  3019  04BE                     u2990:
  3020                           opt subtitle "HI-TECH Software Omniscient Code Generator (Lite mode) build 49521"
  3021                           
  3022  04BE                     l1759:	
  3023                           opt subtitle "HI-TECH Software Omniscient Code Generator (Lite mode) build 49521"
  3024                           
  3025  04BE  0021               	movlb 1	; select bank1
  3026  04BF  178E               	bsf	(1143/8)^080h,(1143)&7	;volatile
  3027  04C0  170E               	bsf	(1142/8)^080h,(1142)&7	;volatile
  3028                           opt subtitle "HI-TECH Software Omniscient Code Generator (Lite mode) build 49521"
  3029  04C1                     l1761:	
  3030  04C1  3067               	movlw	(067h)
  3031  04C2  0023               	movlb 3	; select bank3
  3032  04C3  009B               	movwf	(411)^0180h	;volatile
  3033  04C4  3090               	movlw	(090h)
  3034  04C5  009D               	movwf	(413)^0180h	;volatile
  3035  04C6  3024               	movlw	(024h)
  3036  04C7  009E               	movwf	(414)^0180h	;volatile
  3037                           opt subtitle "HI-TECH Software Omniscient Code Generator (Lite mode) build 49521"
  3038                           
  3039  04C8                     l1763:	
  3040                           opt subtitle "HI-TECH Software Omniscient Code Generator (Lite mode) build 49521"
  3041  04C8  30A9               	movlw	(STR_1|8000h)&0ffh
  3042  04C9  3181  2171  3184   	fcall	_printf
  3043                           opt subtitle "HI-TECH Software Omniscient Code Generator (Lite mode) build 49521"
  3044                           
  3045  04CC  2CD8               	goto	l1767
  3046                           opt subtitle "HI-TECH Software Omniscient Code Generator (Lite mode) build 49521"
  3047                           
  3048  04CD                     l142:	
  3049                           opt subtitle "HI-TECH Software Omniscient Code Generator (Lite mode) build 49521"
  3050                           
  3051  04CD                     l1765:	
  3052                           opt subtitle "HI-TECH Software Omniscient Code Generator (Lite mode) build 49521"
  3053                           
  3054                           opt pagewidth 120
  3055  04CD  30C0               	movlw	(0C0h)
  3056  04CE  00FB               	movwf	(??_init_sumo+0)+0
  3057  04CF  087B               	movf	(??_init_sumo+0)+0,w
  3058  04D0  0022               	movlb 2	; select bank2
  3059  04D1  048E               	iorwf	(270)^0100h,f	;volatile
  3060  04D2  303F               	movlw	(03Fh)
  3061  04D3  00FB               	movwf	(??_init_sumo+0)+0
  3062  04D4  087B               	movf	(??_init_sumo+0)+0,w
  3063  04D5  0021               	movlb 1	; select bank1
  3064  04D6  058E               	andwf	(142)^080h,f	;volatile
  3065  04D7  2CD8               	goto	l1767
  3066                           opt subtitle "HI-TECH Software Omniscient Code Generator (Lite mode) build 49521"
  3067                           
  3068  04D8                     l143:	
  3069                           opt subtitle "HI-TECH Software Omniscient Code Generator (Lite mode) build 49521"
  3070                           
  3071  04D8                     l1767:	
  3072                           opt subtitle "HI-TECH Software Omniscient Code Generator (Lite mode) build 49521"
  3073                           
  3074  04D8  170B               	bsf	(11),6	;volatile
  3075                           opt subtitle "HI-TECH Software Omniscient Code Generator (Lite mode) build 49521"
  3076                           
  3077  04D9                     l1769:	
  3078                           opt subtitle "HI-TECH Software Omniscient Code Generator (Lite mode) build 49521"
  3079  04D9  178B               	bsf	(11),7	;volatile
  3080  04DA  2CDB               	goto	l144
  3081                           opt subtitle "HI-TECH Software Omniscient Code Generator (Lite mode) build 49521"
  3082                           
  3083  04DB                     l1771:	
  3084                           opt subtitle "HI-TECH Software Omniscient Code Generator (Lite mode) build 49521"
  3085                           
  3086                           opt pagewidth 120
  3087  04DB                     l144:	
  3088  04DB  0008               	return
  3089                           opt subtitle "HI-TECH Software Omniscient Code Generator (Lite mode) build 49521"
  3090                           
  3091  04DC                     	__end_of_init_sumo:
  3092                           opt subtitle "HI-TECH Software Omniscient Code Generator (Lite mode) build 49521"
  3093                           
  3094                           opt pagewidth 120
  3095                           
  3096                           	opt lm
  3097                           
  3098                           	processor	16F1937
  3099                           clrc	macro
  3100                           	bcf	3,0
  3101                           	endm
  3102                           clrz	macro
  3103                           	bcf	3,2
  3104                           	endm
  3105                           setc	macro
  3106                           	bsf	3,0
  3107                           	endm
  3108                           setz	macro
  3109                           	bsf	3,2
  3110                           	endm
  3111                           skipc	macro
  3112                           	btfss	3,0
  3113                           	endm
  3114                           skipz	macro
  3115                           	btfss	3,2
  3116                           	endm
  3117                           skipnc	macro
  3118                           	btfsc	3,0
  3119                           	endm
  3120                           skipnz	macro
  3121                           	btfsc	3,2
  3122                           	endm
  3123                           indf	equ	0
  3124                           indf0	equ	0
  3125                           indf1	equ	1
  3126  074A                     __ptext440:	;psect for function _OpenADC
  3127                           opt subtitle "HI-TECH Software Omniscient Code Generator (Lite mode) build 49521"
  3128                           
  3129                           opt pagewidth 120
  3130                           
  3131  000D                     	__size_of_OpenADC	equ	__end_of_OpenADC-_OpenADC
  3132                           opt subtitle "HI-TECH Software Omniscient Code Generator (Lite mode) build 49521"
  3133  074A                     _OpenADC:	
  3134                           opt subtitle "HI-TECH Software Omniscient Code Generator (Lite mode) build 49521"
  3135                           
  3136                           opt pagewidth 120
  3137                           
  3138  074A                     l1197:	
  3139                           opt subtitle "HI-TECH Software Omniscient Code Generator (Lite mode) build 49521"
  3140  074A  0021               	movlb 1	; select bank1
  3141  074B  179E               	bsf	(158)^080h,7	;volatile
  3142                           opt subtitle "HI-TECH Software Omniscient Code Generator (Lite mode) build 49521"
  3143                           
  3144  074C                     l1199:	
  3145                           opt subtitle "HI-TECH Software Omniscient Code Generator (Lite mode) build 49521"
  3146  074C  081E               	movf	(158)^080h,w	;volatile
  3147  074D  398F               	andlw	not (((1<<3)-1)<<4)
  3148  074E  3850               	iorlw	(05h & ((1<<3)-1))<<4
  3149  074F  009E               	movwf	(158)^080h	;volatile
  3150                           opt subtitle "HI-TECH Software Omniscient Code Generator (Lite mode) build 49521"
  3151                           
  3152  0750                     l1201:	
  3153                           opt subtitle "HI-TECH Software Omniscient Code Generator (Lite mode) build 49521"
  3154  0750  111E               	bcf	(158)^080h,2	;volatile
  3155                           opt subtitle "HI-TECH Software Omniscient Code Generator (Lite mode) build 49521"
  3156                           
  3157  0751  30FC               	movlw	((0 & ((1<<2)-1))<<0)|not (((1<<2)-1)<<0)
  3158  0752  059E               	andwf	(158)^080h,f	;volatile
  3159                           opt subtitle "HI-TECH Software Omniscient Code Generator (Lite mode) build 49521"
  3160                           
  3161  0753  3083               	movlw	((0 & ((1<<5)-1))<<2)|not (((1<<5)-1)<<2)
  3162  0754  059D               	andwf	(157)^080h,f	;volatile
  3163                           opt subtitle "HI-TECH Software Omniscient Code Generator (Lite mode) build 49521"
  3164                           
  3165  0755                     l1203:	
  3166                           opt subtitle "HI-TECH Software Omniscient Code Generator (Lite mode) build 49521"
  3167  0755  141D               	bsf	(157)^080h,0	;volatile
  3168                           opt subtitle "HI-TECH Software Omniscient Code Generator (Lite mode) build 49521"
  3169                           
  3170  0756                     l13:	
  3171  0756  0008               	return
  3172                           opt subtitle "HI-TECH Software Omniscient Code Generator (Lite mode) build 49521"
  3173                           
  3174  0757                     	__end_of_OpenADC:
  3175                           opt subtitle "HI-TECH Software Omniscient Code Generator (Lite mode) build 49521"
  3176                           
  3177                           opt pagewidth 120
  3178                           
  3179                           	opt lm
  3180                           
  3181                           	processor	16F1937
  3182                           clrc	macro
  3183                           	bcf	3,0
  3184                           	endm
  3185                           clrz	macro
  3186                           	bcf	3,2
  3187                           	endm
  3188                           setc	macro
  3189                           	bsf	3,0
  3190                           	endm
  3191                           setz	macro
  3192                           	bsf	3,2
  3193                           	endm
  3194                           skipc	macro
  3195                           	btfss	3,0
  3196                           	endm
  3197                           skipz	macro
  3198                           	btfss	3,2
  3199                           	endm
  3200                           skipnc	macro
  3201                           	btfsc	3,0
  3202                           	endm
  3203                           skipnz	macro
  3204                           	btfsc	3,2
  3205                           	endm
  3206                           indf	equ	0
  3207                           indf0	equ	0
  3208                           indf1	equ	1
  3209  06F7                     __ptext441:	;psect for function _delay_ms
  3210                           opt subtitle "HI-TECH Software Omniscient Code Generator (Lite mode) build 49521"
  3211                           
  3212                           opt pagewidth 120
  3213                           
  3214  001D                     	__size_of_delay_ms	equ	__end_of_delay_ms-_delay_ms
  3215                           opt subtitle "HI-TECH Software Omniscient Code Generator (Lite mode) build 49521"
  3216  06F7                     _delay_ms:	
  3217                           opt subtitle "HI-TECH Software Omniscient Code Generator (Lite mode) build 49521"
  3218                           
  3219                           opt pagewidth 120
  3220                           
  3221  06F7                     l1359:	
  3222                           opt subtitle "HI-TECH Software Omniscient Code Generator (Lite mode) build 49521"
  3223                           
  3224  06F7  0871               	movf	(delay_ms@miliseconds),w
  3225  06F8  00F3               	movwf	(??_delay_ms+0)+0
  3226  06F9  0873               	movf	(??_delay_ms+0)+0,w
  3227  06FA  00F5               	movwf	(delay_ms@temp)
  3228                           opt subtitle "HI-TECH Software Omniscient Code Generator (Lite mode) build 49521"
  3229  06FB                     l1361:	
  3230  06FB  08F5               	movf	(delay_ms@temp),f
  3231  06FC  1D03               	skipz
  3232  06FD  2EFF               	goto	u1761
  3233  06FE  2F00               	goto	u1760
  3234  06FF                     u1761:
  3235  06FF  2F02               	goto	l1365
  3236  0700                     u1760:
  3237  0700  2F13               	goto	l177
  3238                           opt subtitle "HI-TECH Software Omniscient Code Generator (Lite mode) build 49521"
  3239  0701                     l1363:	
  3240  0701  2F13               	goto	l177
  3241                           opt subtitle "HI-TECH Software Omniscient Code Generator (Lite mode) build 49521"
  3242                           
  3243  0702                     l175:	
  3244                           opt subtitle "HI-TECH Software Omniscient Code Generator (Lite mode) build 49521"
  3245  0702                     l1365:	
  3246                           opt subtitle "HI-TECH Software Omniscient Code Generator (Lite mode) build 49521"
  3247                           
  3248  0702  3006               movlw	6
  3249  0703  00F4               movwf	((??_delay_ms+0)+0+1),f
  3250  0704  3030               	movlw	48
  3251  0705  00F3               movwf	((??_delay_ms+0)+0),f
  3252  0706                     u3397:
  3253  0706  0BF3               	decfsz	((??_delay_ms+0)+0),f
  3254  0707  2F06               	goto	u3397
  3255  0708  0BF4               	decfsz	((??_delay_ms+0)+0+1),f
  3256  0709  2F06               	goto	u3397
  3257  070A  0000               	nop
  3258                           opt subtitle "HI-TECH Software Omniscient Code Generator (Lite mode) build 49521"
  3259                           
  3260                           opt pagewidth 120
  3261                           
  3262  070B                     l1367:	
  3263  070B  3001               	movlw	low(01h)
  3264  070C  02F5               	subwf	(delay_ms@temp),f
  3265  070D  08F5               	movf	(delay_ms@temp),f
  3266  070E  1D03               	skipz
  3267  070F  2F11               	goto	u1771
  3268  0710  2F12               	goto	u1770
  3269  0711                     u1771:
  3270  0711  2F02               	goto	l1365
  3271  0712                     u1770:
  3272  0712  2F13               	goto	l177
  3273                           opt subtitle "HI-TECH Software Omniscient Code Generator (Lite mode) build 49521"
  3274  0713                     l176:	
  3275                           opt subtitle "HI-TECH Software Omniscient Code Generator (Lite mode) build 49521"
  3276                           
  3277  0713                     l177:	
  3278  0713  0008               	return
  3279                           opt subtitle "HI-TECH Software Omniscient Code Generator (Lite mode) build 49521"
  3280                           
  3281  0714                     	__end_of_delay_ms:
  3282                           opt subtitle "HI-TECH Software Omniscient Code Generator (Lite mode) build 49521"
  3283                           
  3284                           opt pagewidth 120
  3285                           
  3286                           	opt lm
  3287                           
  3288                           	processor	16F1937
  3289                           clrc	macro
  3290                           	bcf	3,0
  3291                           	endm
  3292                           clrz	macro
  3293                           	bcf	3,2
  3294                           	endm
  3295                           setc	macro
  3296                           	bsf	3,0
  3297                           	endm
  3298                           setz	macro
  3299                           	bsf	3,2
  3300                           	endm
  3301                           skipc	macro
  3302                           	btfss	3,0
  3303                           	endm
  3304                           skipz	macro
  3305                           	btfss	3,2
  3306                           	endm
  3307                           skipnc	macro
  3308                           	btfsc	3,0
  3309                           	endm
  3310                           skipnz	macro
  3311                           	btfsc	3,2
  3312                           	endm
  3313                           indf	equ	0
  3314                           indf0	equ	0
  3315                           indf1	equ	1
  3316  05D1                     __ptext442:	;psect for function _delay_s
  3317                           opt subtitle "HI-TECH Software Omniscient Code Generator (Lite mode) build 49521"
  3318                           
  3319                           opt pagewidth 120
  3320                           
  3321  0055                     	__size_of_delay_s	equ	__end_of_delay_s-_delay_s
  3322                           opt subtitle "HI-TECH Software Omniscient Code Generator (Lite mode) build 49521"
  3323  05D1                     _delay_s:	
  3324                           opt subtitle "HI-TECH Software Omniscient Code Generator (Lite mode) build 49521"
  3325                           
  3326                           opt pagewidth 120
  3327                           
  3328  05D1                     l1369:	
  3329                           opt subtitle "HI-TECH Software Omniscient Code Generator (Lite mode) build 49521"
  3330                           
  3331  05D1  0871               	movf	(delay_s@seconds),w
  3332  05D2  00F3               	movwf	(??_delay_s+0)+0
  3333  05D3  0873               	movf	(??_delay_s+0)+0,w
  3334  05D4  00F6               	movwf	(delay_s@temp)
  3335                           opt subtitle "HI-TECH Software Omniscient Code Generator (Lite mode) build 49521"
  3336  05D5                     l1371:	
  3337  05D5  08F6               	movf	(delay_s@temp),f
  3338  05D6  1D03               	skipz
  3339  05D7  2DD9               	goto	u1781
  3340  05D8  2DDA               	goto	u1780
  3341  05D9                     u1781:
  3342  05D9  2DDC               	goto	l180
  3343  05DA                     u1780:
  3344  05DA  2E25               	goto	l182
  3345                           opt subtitle "HI-TECH Software Omniscient Code Generator (Lite mode) build 49521"
  3346  05DB                     l1373:	
  3347  05DB  2E25               	goto	l182
  3348                           opt subtitle "HI-TECH Software Omniscient Code Generator (Lite mode) build 49521"
  3349                           
  3350  05DC                     l180:	
  3351                           opt subtitle "HI-TECH Software Omniscient Code Generator (Lite mode) build 49521"
  3352                           
  3353                           opt pagewidth 120
  3354  05DC  0022               	movlb 2	; select bank2
  3355  05DD  178E               	bsf	(270)^0100h,7	;volatile
  3356  05DE  1B8E               	btfsc	(270)^0100h,7	;volatile
  3357  05DF  2DE1               	goto	u1791
  3358  05E0  2DE4               	goto	u1790
  3359                           opt subtitle "HI-TECH Software Omniscient Code Generator (Lite mode) build 49521"
  3360  05E1                     u1791:
  3361  05E1  0022               	movlb 2	; select bank2
  3362  05E2  170E               	bsf	(270)^0100h,6	;volatile
  3363  05E3  2DE6               	goto	u1804
  3364  05E4                     u1790:
  3365  05E4  0022               	movlb 2	; select bank2
  3366  05E5  130E               	bcf	(270)^0100h,6	;volatile
  3367  05E6                     u1804:
  3368                           opt subtitle "HI-TECH Software Omniscient Code Generator (Lite mode) build 49521"
  3369                           
  3370  05E6                     l1375:	
  3371                           opt subtitle "HI-TECH Software Omniscient Code Generator (Lite mode) build 49521"
  3372                           
  3373  05E6  3006               movlw  6
  3374  05E7  00F5               movwf	((??_delay_s+0)+0+2),f
  3375  05E8  3013               movlw	19
  3376  05E9  00F4               movwf	((??_delay_s+0)+0+1),f
  3377  05EA  30B1               	movlw	177
  3378  05EB  00F3               movwf	((??_delay_s+0)+0),f
  3379  05EC                     u3407:
  3380  05EC  0BF3               	decfsz	((??_delay_s+0)+0),f
  3381  05ED  2DEC               	goto	u3407
  3382  05EE  0BF4               	decfsz	((??_delay_s+0)+0+1),f
  3383  05EF  2DEC               	goto	u3407
  3384  05F0  0BF5               	decfsz	((??_delay_s+0)+0+2),f
  3385  05F1  2DEC               	goto	u3407
  3386  05F2  2DF3               	nop2
  3387                           opt subtitle "HI-TECH Software Omniscient Code Generator (Lite mode) build 49521"
  3388                           
  3389                           opt pagewidth 120
  3390                           
  3391                           	opt lm
  3392  05F3  3006               movlw  6
  3393  05F4  00F5               movwf	((??_delay_s+0)+0+2),f
  3394  05F5  3013               movlw	19
  3395  05F6  00F4               movwf	((??_delay_s+0)+0+1),f
  3396  05F7  30B1               	movlw	177
  3397  05F8  00F3               movwf	((??_delay_s+0)+0),f
  3398  05F9                     u3417:
  3399  05F9  0BF3               	decfsz	((??_delay_s+0)+0),f
  3400  05FA  2DF9               	goto	u3417
  3401  05FB  0BF4               	decfsz	((??_delay_s+0)+0+1),f
  3402  05FC  2DF9               	goto	u3417
  3403  05FD  0BF5               	decfsz	((??_delay_s+0)+0+2),f
  3404  05FE  2DF9               	goto	u3417
  3405  05FF  2E00               	nop2
  3406                           opt subtitle "HI-TECH Software Omniscient Code Generator (Lite mode) build 49521"
  3407                           
  3408                           opt pagewidth 120
  3409                           
  3410                           	opt lm
  3411  0600  3006               movlw  6
  3412  0601  00F5               movwf	((??_delay_s+0)+0+2),f
  3413  0602  3013               movlw	19
  3414  0603  00F4               movwf	((??_delay_s+0)+0+1),f
  3415  0604  30B1               	movlw	177
  3416  0605  00F3               movwf	((??_delay_s+0)+0),f
  3417  0606                     u3427:
  3418  0606  0BF3               	decfsz	((??_delay_s+0)+0),f
  3419  0607  2E06               	goto	u3427
  3420  0608  0BF4               	decfsz	((??_delay_s+0)+0+1),f
  3421  0609  2E06               	goto	u3427
  3422  060A  0BF5               	decfsz	((??_delay_s+0)+0+2),f
  3423  060B  2E06               	goto	u3427
  3424  060C  2E0D               	nop2
  3425                           opt subtitle "HI-TECH Software Omniscient Code Generator (Lite mode) build 49521"
  3426                           
  3427                           opt pagewidth 120
  3428                           
  3429  060D                     l1377:	
  3430                           opt subtitle "HI-TECH Software Omniscient Code Generator (Lite mode) build 49521"
  3431  060D  0022               	movlb 2	; select bank2
  3432  060E  138E               	bcf	(270)^0100h,7	;volatile
  3433  060F  130E               	bcf	(270)^0100h,6	;volatile
  3434                           opt subtitle "HI-TECH Software Omniscient Code Generator (Lite mode) build 49521"
  3435                           
  3436                           opt pagewidth 120
  3437  0610  3005               movlw  5
  3438  0611  00F5               movwf	((??_delay_s+0)+0+2),f
  3439  0612  30DF               movlw	223
  3440  0613  00F4               movwf	((??_delay_s+0)+0+1),f
  3441  0614  30BE               	movlw	190
  3442  0615  00F3               movwf	((??_delay_s+0)+0),f
  3443  0616                     u3437:
  3444  0616  0BF3               	decfsz	((??_delay_s+0)+0),f
  3445  0617  2E16               	goto	u3437
  3446  0618  0BF4               	decfsz	((??_delay_s+0)+0+1),f
  3447  0619  2E16               	goto	u3437
  3448  061A  0BF5               	decfsz	((??_delay_s+0)+0+2),f
  3449  061B  2E16               	goto	u3437
  3450  061C  2E1D               	nop2
  3451                           opt subtitle "HI-TECH Software Omniscient Code Generator (Lite mode) build 49521"
  3452                           
  3453                           opt pagewidth 120
  3454                           
  3455  061D                     l1379:	
  3456  061D  3001               	movlw	low(01h)
  3457  061E  02F6               	subwf	(delay_s@temp),f
  3458  061F  08F6               	movf	(delay_s@temp),f
  3459  0620  1D03               	skipz
  3460  0621  2E23               	goto	u1811
  3461  0622  2E24               	goto	u1810
  3462  0623                     u1811:
  3463  0623  2DDC               	goto	l180
  3464  0624                     u1810:
  3465  0624  2E25               	goto	l182
  3466                           opt subtitle "HI-TECH Software Omniscient Code Generator (Lite mode) build 49521"
  3467  0625                     l181:	
  3468                           opt subtitle "HI-TECH Software Omniscient Code Generator (Lite mode) build 49521"
  3469                           
  3470  0625                     l182:	
  3471  0625  0008               	return
  3472                           opt subtitle "HI-TECH Software Omniscient Code Generator (Lite mode) build 49521"
  3473                           
  3474  0626                     	__end_of_delay_s:
  3475                           opt subtitle "HI-TECH Software Omniscient Code Generator (Lite mode) build 49521"
  3476                           
  3477                           opt pagewidth 120
  3478                           
  3479                           	opt lm
  3480                           
  3481                           	processor	16F1937
  3482                           clrc	macro
  3483                           	bcf	3,0
  3484                           	endm
  3485                           clrz	macro
  3486                           	bcf	3,2
  3487                           	endm
  3488                           setc	macro
  3489                           	bsf	3,0
  3490                           	endm
  3491                           setz	macro
  3492                           	bsf	3,2
  3493                           	endm
  3494                           skipc	macro
  3495                           	btfss	3,0
  3496                           	endm
  3497                           skipz	macro
  3498                           	btfss	3,2
  3499                           	endm
  3500                           skipnc	macro
  3501                           	btfsc	3,0
  3502                           	endm
  3503                           skipnz	macro
  3504                           	btfsc	3,2
  3505                           	endm
  3506                           indf	equ	0
  3507                           indf0	equ	0
  3508                           indf1	equ	1
  3509                           pc	equ	2
  3510                           pcl	equ	2
  3511                           status	equ	3
  3512                           fsr0l	equ	4
  3513                           fsr0h	equ	5
  3514                           fsr1l	equ	6
  3515                           fsr1h	equ	7
  3516                           bsr	equ	8
  3517  02D5                     __ptext443:	;psect for function _get_sensors
  3518                           opt subtitle "HI-TECH Software Omniscient Code Generator (Lite mode) build 49521"
  3519                           
  3520                           opt pagewidth 120
  3521                           
  3522  0153                     	__size_of_get_sensors	equ	__end_of_get_sensors-_get_sensors
  3523                           opt subtitle "HI-TECH Software Omniscient Code Generator (Lite mode) build 49521"
  3524  02D5                     _get_sensors:	
  3525                           opt subtitle "HI-TECH Software Omniscient Code Generator (Lite mode) build 49521"
  3526                           
  3527                           opt pagewidth 120
  3528                           
  3529  02D5                     l1773:	
  3530                           opt subtitle "HI-TECH Software Omniscient Code Generator (Lite mode) build 49521"
  3531                           
  3532                           opt pagewidth 120
  3533  02D5  0020               	movlb 0	; select bank0
  3534  02D6  01C0               	clrf	(get_sensors@mFrontLeftLine)
  3535  02D7  01C1               	clrf	(get_sensors@mFrontLeftLine+1)
  3536                           opt subtitle "HI-TECH Software Omniscient Code Generator (Lite mode) build 49521"
  3537                           
  3538  02D8  01C2               	clrf	(get_sensors@mFrontRightLine)
  3539  02D9  01C3               	clrf	(get_sensors@mFrontRightLine+1)
  3540                           opt subtitle "HI-TECH Software Omniscient Code Generator (Lite mode) build 49521"
  3541                           
  3542  02DA  01C4               	clrf	(get_sensors@mBackLeftLine)
  3543  02DB  01C5               	clrf	(get_sensors@mBackLeftLine+1)
  3544                           opt subtitle "HI-TECH Software Omniscient Code Generator (Lite mode) build 49521"
  3545                           
  3546  02DC  01C6               	clrf	(get_sensors@mBackRightLine)
  3547  02DD  01C7               	clrf	(get_sensors@mBackRightLine+1)
  3548                           opt subtitle "HI-TECH Software Omniscient Code Generator (Lite mode) build 49521"
  3549                           
  3550  02DE  01C8               	clrf	(get_sensors@mLeftRange)
  3551  02DF  01C9               	clrf	(get_sensors@mLeftRange+1)
  3552                           opt subtitle "HI-TECH Software Omniscient Code Generator (Lite mode) build 49521"
  3553                           
  3554  02E0  01CA               	clrf	(get_sensors@mRightRange)
  3555  02E1  01CB               	clrf	(get_sensors@mRightRange+1)
  3556                           opt subtitle "HI-TECH Software Omniscient Code Generator (Lite mode) build 49521"
  3557                           
  3558  02E2                     l1775:	
  3559                           opt subtitle "HI-TECH Software Omniscient Code Generator (Lite mode) build 49521"
  3560  02E2  105A               	bcf	(_Sumo),0	;volatile
  3561                           opt subtitle "HI-TECH Software Omniscient Code Generator (Lite mode) build 49521"
  3562                           
  3563  02E3                     l1777:	
  3564                           opt subtitle "HI-TECH Software Omniscient Code Generator (Lite mode) build 49521"
  3565  02E3  10DA               	bcf	(_Sumo),1	;volatile
  3566                           opt subtitle "HI-TECH Software Omniscient Code Generator (Lite mode) build 49521"
  3567                           
  3568  02E4                     l1779:	
  3569                           opt subtitle "HI-TECH Software Omniscient Code Generator (Lite mode) build 49521"
  3570  02E4  115A               	bcf	(_Sumo),2	;volatile
  3571                           opt subtitle "HI-TECH Software Omniscient Code Generator (Lite mode) build 49521"
  3572                           
  3573  02E5                     l1781:	
  3574                           opt subtitle "HI-TECH Software Omniscient Code Generator (Lite mode) build 49521"
  3575  02E5  11DA               	bcf	(_Sumo),3	;volatile
  3576                           opt subtitle "HI-TECH Software Omniscient Code Generator (Lite mode) build 49521"
  3577                           
  3578  02E6                     l1783:	
  3579                           opt subtitle "HI-TECH Software Omniscient Code Generator (Lite mode) build 49521"
  3580  02E6  01CC               	clrf	(get_sensors@i)
  3581                           opt subtitle "HI-TECH Software Omniscient Code Generator (Lite mode) build 49521"
  3582  02E7                     l1785:	
  3583  02E7  3006               	movlw	(06h)
  3584  02E8  024C               	subwf	(get_sensors@i),w
  3585  02E9  1C03               	skipc
  3586  02EA  2AEC               	goto	u3001
  3587  02EB  2AED               	goto	u3000
  3588  02EC                     u3001:
  3589  02EC  2AEF               	goto	l1789
  3590  02ED                     u3000:
  3591  02ED  2B04               	goto	l160
  3592                           opt subtitle "HI-TECH Software Omniscient Code Generator (Lite mode) build 49521"
  3593  02EE                     l1787:	
  3594  02EE  2B04               	goto	l160
  3595                           opt subtitle "HI-TECH Software Omniscient Code Generator (Lite mode) build 49521"
  3596                           
  3597  02EF                     l159:	
  3598                           opt subtitle "HI-TECH Software Omniscient Code Generator (Lite mode) build 49521"
  3599                           
  3600  02EF                     l1789:	
  3601                           opt subtitle "HI-TECH Software Omniscient Code Generator (Lite mode) build 49521"
  3602                           
  3603  02EF  3000               	movlw	(0)
  3604  02F0  3186  26A9  3182   	fcall	_ReadADC
  3605  02F3  0872               	movf	(1+(?_ReadADC)),w
  3606  02F4  0020               	movlb 0	; select bank0
  3607  02F5  01C9               	clrf	(get_sensors@mLeftRange+1)
  3608  02F6  07C9               	addwf	(get_sensors@mLeftRange+1)
  3609  02F7  0871               	movf	(0+(?_ReadADC)),w
  3610  02F8  01C8               	clrf	(get_sensors@mLeftRange)
  3611  02F9  07C8               	addwf	(get_sensors@mLeftRange)
  3612                           opt subtitle "HI-TECH Software Omniscient Code Generator (Lite mode) build 49521"
  3613                           
  3614                           opt pagewidth 120
  3615  02FA                     l1791:	
  3616  02FA  3001               	movlw	(01h)
  3617  02FB  00BE               	movwf	(??_get_sensors+0)+0
  3618  02FC  083E               	movf	(??_get_sensors+0)+0,w
  3619  02FD  07CC               	addwf	(get_sensors@i),f
  3620                           opt subtitle "HI-TECH Software Omniscient Code Generator (Lite mode) build 49521"
  3621  02FE                     l1793:	
  3622  02FE  3006               	movlw	(06h)
  3623  02FF  024C               	subwf	(get_sensors@i),w
  3624  0300  1C03               	skipc
  3625  0301  2B03               	goto	u3011
  3626  0302  2B04               	goto	u3010
  3627  0303                     u3011:
  3628  0303  2AEF               	goto	l1789
  3629  0304                     u3010:
  3630                           opt subtitle "HI-TECH Software Omniscient Code Generator (Lite mode) build 49521"
  3631  0304                     l160:	
  3632                           opt subtitle "HI-TECH Software Omniscient Code Generator (Lite mode) build 49521"
  3633                           
  3634                           opt pagewidth 120
  3635  0304  01CC               	clrf	(get_sensors@i)
  3636                           opt subtitle "HI-TECH Software Omniscient Code Generator (Lite mode) build 49521"
  3637  0305                     l1795:	
  3638  0305  3006               	movlw	(06h)
  3639  0306  024C               	subwf	(get_sensors@i),w
  3640  0307  1C03               	skipc
  3641  0308  2B0A               	goto	u3021
  3642  0309  2B0B               	goto	u3020
  3643  030A                     u3021:
  3644  030A  2B0D               	goto	l1799
  3645  030B                     u3020:
  3646  030B  2B22               	goto	l162
  3647                           opt subtitle "HI-TECH Software Omniscient Code Generator (Lite mode) build 49521"
  3648  030C                     l1797:	
  3649  030C  2B22               	goto	l162
  3650                           opt subtitle "HI-TECH Software Omniscient Code Generator (Lite mode) build 49521"
  3651                           
  3652  030D                     l161:	
  3653                           opt subtitle "HI-TECH Software Omniscient Code Generator (Lite mode) build 49521"
  3654                           
  3655  030D                     l1799:	
  3656                           opt subtitle "HI-TECH Software Omniscient Code Generator (Lite mode) build 49521"
  3657                           
  3658  030D  3001               	movlw	(01h)
  3659  030E  3186  26A9  3182   	fcall	_ReadADC
  3660  0311  0872               	movf	(1+(?_ReadADC)),w
  3661  0312  0020               	movlb 0	; select bank0
  3662  0313  01CB               	clrf	(get_sensors@mRightRange+1)
  3663  0314  07CB               	addwf	(get_sensors@mRightRange+1)
  3664  0315  0871               	movf	(0+(?_ReadADC)),w
  3665  0316  01CA               	clrf	(get_sensors@mRightRange)
  3666  0317  07CA               	addwf	(get_sensors@mRightRange)
  3667                           opt subtitle "HI-TECH Software Omniscient Code Generator (Lite mode) build 49521"
  3668                           
  3669                           opt pagewidth 120
  3670  0318                     l1801:	
  3671  0318  3001               	movlw	(01h)
  3672  0319  00BE               	movwf	(??_get_sensors+0)+0
  3673  031A  083E               	movf	(??_get_sensors+0)+0,w
  3674  031B  07CC               	addwf	(get_sensors@i),f
  3675                           opt subtitle "HI-TECH Software Omniscient Code Generator (Lite mode) build 49521"
  3676  031C                     l1803:	
  3677  031C  3006               	movlw	(06h)
  3678  031D  024C               	subwf	(get_sensors@i),w
  3679  031E  1C03               	skipc
  3680  031F  2B21               	goto	u3031
  3681  0320  2B22               	goto	u3030
  3682  0321                     u3031:
  3683  0321  2B0D               	goto	l1799
  3684  0322                     u3030:
  3685                           opt subtitle "HI-TECH Software Omniscient Code Generator (Lite mode) build 49521"
  3686  0322                     l162:	
  3687                           opt subtitle "HI-TECH Software Omniscient Code Generator (Lite mode) build 49521"
  3688                           
  3689                           opt pagewidth 120
  3690  0322  01CC               	clrf	(get_sensors@i)
  3691                           opt subtitle "HI-TECH Software Omniscient Code Generator (Lite mode) build 49521"
  3692  0323                     l1805:	
  3693  0323  3006               	movlw	(06h)
  3694  0324  024C               	subwf	(get_sensors@i),w
  3695  0325  1C03               	skipc
  3696  0326  2B28               	goto	u3041
  3697  0327  2B29               	goto	u3040
  3698  0328                     u3041:
  3699  0328  2B2B               	goto	l1809
  3700  0329                     u3040:
  3701  0329  2B40               	goto	l164
  3702                           opt subtitle "HI-TECH Software Omniscient Code Generator (Lite mode) build 49521"
  3703  032A                     l1807:	
  3704  032A  2B40               	goto	l164
  3705                           opt subtitle "HI-TECH Software Omniscient Code Generator (Lite mode) build 49521"
  3706                           
  3707  032B                     l163:	
  3708                           opt subtitle "HI-TECH Software Omniscient Code Generator (Lite mode) build 49521"
  3709                           
  3710  032B                     l1809:	
  3711                           opt subtitle "HI-TECH Software Omniscient Code Generator (Lite mode) build 49521"
  3712                           
  3713  032B  3002               	movlw	(02h)
  3714  032C  3186  26A9  3182   	fcall	_ReadADC
  3715  032F  0872               	movf	(1+(?_ReadADC)),w
  3716  0330  0020               	movlb 0	; select bank0
  3717  0331  01C1               	clrf	(get_sensors@mFrontLeftLine+1)
  3718  0332  07C1               	addwf	(get_sensors@mFrontLeftLine+1)
  3719  0333  0871               	movf	(0+(?_ReadADC)),w
  3720  0334  01C0               	clrf	(get_sensors@mFrontLeftLine)
  3721  0335  07C0               	addwf	(get_sensors@mFrontLeftLine)
  3722                           opt subtitle "HI-TECH Software Omniscient Code Generator (Lite mode) build 49521"
  3723                           
  3724                           opt pagewidth 120
  3725  0336                     l1811:	
  3726  0336  3001               	movlw	(01h)
  3727  0337  00BE               	movwf	(??_get_sensors+0)+0
  3728  0338  083E               	movf	(??_get_sensors+0)+0,w
  3729  0339  07CC               	addwf	(get_sensors@i),f
  3730                           opt subtitle "HI-TECH Software Omniscient Code Generator (Lite mode) build 49521"
  3731  033A                     l1813:	
  3732  033A  3006               	movlw	(06h)
  3733  033B  024C               	subwf	(get_sensors@i),w
  3734  033C  1C03               	skipc
  3735  033D  2B3F               	goto	u3051
  3736  033E  2B40               	goto	u3050
  3737  033F                     u3051:
  3738  033F  2B2B               	goto	l1809
  3739  0340                     u3050:
  3740                           opt subtitle "HI-TECH Software Omniscient Code Generator (Lite mode) build 49521"
  3741  0340                     l164:	
  3742                           opt subtitle "HI-TECH Software Omniscient Code Generator (Lite mode) build 49521"
  3743                           
  3744                           opt pagewidth 120
  3745  0340  01CC               	clrf	(get_sensors@i)
  3746                           opt subtitle "HI-TECH Software Omniscient Code Generator (Lite mode) build 49521"
  3747  0341                     l1815:	
  3748  0341  3006               	movlw	(06h)
  3749  0342  024C               	subwf	(get_sensors@i),w
  3750  0343  1C03               	skipc
  3751  0344  2B46               	goto	u3061
  3752  0345  2B47               	goto	u3060
  3753  0346                     u3061:
  3754  0346  2B49               	goto	l1819
  3755  0347                     u3060:
  3756  0347  2B5E               	goto	l166
  3757                           opt subtitle "HI-TECH Software Omniscient Code Generator (Lite mode) build 49521"
  3758  0348                     l1817:	
  3759  0348  2B5E               	goto	l166
  3760                           opt subtitle "HI-TECH Software Omniscient Code Generator (Lite mode) build 49521"
  3761                           
  3762  0349                     l165:	
  3763                           opt subtitle "HI-TECH Software Omniscient Code Generator (Lite mode) build 49521"
  3764                           
  3765  0349                     l1819:	
  3766                           opt subtitle "HI-TECH Software Omniscient Code Generator (Lite mode) build 49521"
  3767                           
  3768  0349  3003               	movlw	(03h)
  3769  034A  3186  26A9  3182   	fcall	_ReadADC
  3770  034D  0872               	movf	(1+(?_ReadADC)),w
  3771  034E  0020               	movlb 0	; select bank0
  3772  034F  01C3               	clrf	(get_sensors@mFrontRightLine+1)
  3773  0350  07C3               	addwf	(get_sensors@mFrontRightLine+1)
  3774  0351  0871               	movf	(0+(?_ReadADC)),w
  3775  0352  01C2               	clrf	(get_sensors@mFrontRightLine)
  3776  0353  07C2               	addwf	(get_sensors@mFrontRightLine)
  3777                           opt subtitle "HI-TECH Software Omniscient Code Generator (Lite mode) build 49521"
  3778                           
  3779                           opt pagewidth 120
  3780  0354                     l1821:	
  3781  0354  3001               	movlw	(01h)
  3782  0355  00BE               	movwf	(??_get_sensors+0)+0
  3783  0356  083E               	movf	(??_get_sensors+0)+0,w
  3784  0357  07CC               	addwf	(get_sensors@i),f
  3785                           opt subtitle "HI-TECH Software Omniscient Code Generator (Lite mode) build 49521"
  3786  0358                     l1823:	
  3787  0358  3006               	movlw	(06h)
  3788  0359  024C               	subwf	(get_sensors@i),w
  3789  035A  1C03               	skipc
  3790  035B  2B5D               	goto	u3071
  3791  035C  2B5E               	goto	u3070
  3792  035D                     u3071:
  3793  035D  2B49               	goto	l1819
  3794  035E                     u3070:
  3795                           opt subtitle "HI-TECH Software Omniscient Code Generator (Lite mode) build 49521"
  3796  035E                     l166:	
  3797                           opt subtitle "HI-TECH Software Omniscient Code Generator (Lite mode) build 49521"
  3798                           
  3799                           opt pagewidth 120
  3800  035E  01CC               	clrf	(get_sensors@i)
  3801                           opt subtitle "HI-TECH Software Omniscient Code Generator (Lite mode) build 49521"
  3802  035F                     l1825:	
  3803  035F  3006               	movlw	(06h)
  3804  0360  024C               	subwf	(get_sensors@i),w
  3805  0361  1C03               	skipc
  3806  0362  2B64               	goto	u3081
  3807  0363  2B65               	goto	u3080
  3808  0364                     u3081:
  3809  0364  2B67               	goto	l1829
  3810  0365                     u3080:
  3811  0365  2B7C               	goto	l168
  3812                           opt subtitle "HI-TECH Software Omniscient Code Generator (Lite mode) build 49521"
  3813  0366                     l1827:	
  3814  0366  2B7C               	goto	l168
  3815                           opt subtitle "HI-TECH Software Omniscient Code Generator (Lite mode) build 49521"
  3816                           
  3817  0367                     l167:	
  3818                           opt subtitle "HI-TECH Software Omniscient Code Generator (Lite mode) build 49521"
  3819                           
  3820  0367                     l1829:	
  3821                           opt subtitle "HI-TECH Software Omniscient Code Generator (Lite mode) build 49521"
  3822                           
  3823  0367  3004               	movlw	(04h)
  3824  0368  3186  26A9  3182   	fcall	_ReadADC
  3825  036B  0872               	movf	(1+(?_ReadADC)),w
  3826  036C  0020               	movlb 0	; select bank0
  3827  036D  01C5               	clrf	(get_sensors@mBackLeftLine+1)
  3828  036E  07C5               	addwf	(get_sensors@mBackLeftLine+1)
  3829  036F  0871               	movf	(0+(?_ReadADC)),w
  3830  0370  01C4               	clrf	(get_sensors@mBackLeftLine)
  3831  0371  07C4               	addwf	(get_sensors@mBackLeftLine)
  3832                           opt subtitle "HI-TECH Software Omniscient Code Generator (Lite mode) build 49521"
  3833                           
  3834                           opt pagewidth 120
  3835  0372                     l1831:	
  3836  0372  3001               	movlw	(01h)
  3837  0373  00BE               	movwf	(??_get_sensors+0)+0
  3838  0374  083E               	movf	(??_get_sensors+0)+0,w
  3839  0375  07CC               	addwf	(get_sensors@i),f
  3840                           opt subtitle "HI-TECH Software Omniscient Code Generator (Lite mode) build 49521"
  3841  0376                     l1833:	
  3842  0376  3006               	movlw	(06h)
  3843  0377  024C               	subwf	(get_sensors@i),w
  3844  0378  1C03               	skipc
  3845  0379  2B7B               	goto	u3091
  3846  037A  2B7C               	goto	u3090
  3847  037B                     u3091:
  3848  037B  2B67               	goto	l1829
  3849  037C                     u3090:
  3850                           opt subtitle "HI-TECH Software Omniscient Code Generator (Lite mode) build 49521"
  3851  037C                     l168:	
  3852                           opt subtitle "HI-TECH Software Omniscient Code Generator (Lite mode) build 49521"
  3853                           
  3854                           opt pagewidth 120
  3855  037C  01CC               	clrf	(get_sensors@i)
  3856                           opt subtitle "HI-TECH Software Omniscient Code Generator (Lite mode) build 49521"
  3857  037D                     l1835:	
  3858  037D  3006               	movlw	(06h)
  3859  037E  024C               	subwf	(get_sensors@i),w
  3860  037F  1C03               	skipc
  3861  0380  2B82               	goto	u3101
  3862  0381  2B83               	goto	u3100
  3863  0382                     u3101:
  3864  0382  2B85               	goto	l1839
  3865  0383                     u3100:
  3866  0383  2B9B               	goto	l1845
  3867                           opt subtitle "HI-TECH Software Omniscient Code Generator (Lite mode) build 49521"
  3868  0384                     l1837:	
  3869  0384  2B9B               	goto	l1845
  3870                           opt subtitle "HI-TECH Software Omniscient Code Generator (Lite mode) build 49521"
  3871                           
  3872  0385                     l169:	
  3873                           opt subtitle "HI-TECH Software Omniscient Code Generator (Lite mode) build 49521"
  3874                           
  3875  0385                     l1839:	
  3876                           opt subtitle "HI-TECH Software Omniscient Code Generator (Lite mode) build 49521"
  3877                           
  3878  0385  3005               	movlw	(05h)
  3879  0386  3186  26A9  3182   	fcall	_ReadADC
  3880  0389  0872               	movf	(1+(?_ReadADC)),w
  3881  038A  0020               	movlb 0	; select bank0
  3882  038B  01C7               	clrf	(get_sensors@mBackRightLine+1)
  3883  038C  07C7               	addwf	(get_sensors@mBackRightLine+1)
  3884  038D  0871               	movf	(0+(?_ReadADC)),w
  3885  038E  01C6               	clrf	(get_sensors@mBackRightLine)
  3886  038F  07C6               	addwf	(get_sensors@mBackRightLine)
  3887                           opt subtitle "HI-TECH Software Omniscient Code Generator (Lite mode) build 49521"
  3888                           
  3889                           opt pagewidth 120
  3890  0390                     l1841:	
  3891  0390  3001               	movlw	(01h)
  3892  0391  00BE               	movwf	(??_get_sensors+0)+0
  3893  0392  083E               	movf	(??_get_sensors+0)+0,w
  3894  0393  07CC               	addwf	(get_sensors@i),f
  3895                           opt subtitle "HI-TECH Software Omniscient Code Generator (Lite mode) build 49521"
  3896  0394                     l1843:	
  3897  0394  3006               	movlw	(06h)
  3898  0395  024C               	subwf	(get_sensors@i),w
  3899  0396  1C03               	skipc
  3900  0397  2B99               	goto	u3111
  3901  0398  2B9A               	goto	u3110
  3902  0399                     u3111:
  3903  0399  2B85               	goto	l1839
  3904  039A                     u3110:
  3905  039A  2B9B               	goto	l1845
  3906                           opt subtitle "HI-TECH Software Omniscient Code Generator (Lite mode) build 49521"
  3907  039B                     l170:	
  3908                           opt subtitle "HI-TECH Software Omniscient Code Generator (Lite mode) build 49521"
  3909                           
  3910  039B                     l1845:	
  3911                           opt subtitle "HI-TECH Software Omniscient Code Generator (Lite mode) build 49521"
  3912                           
  3913  039B  0855               	movf	(_mEdgeFrontLeftThreshold+1),w
  3914  039C  0241               	subwf	(get_sensors@mFrontLeftLine+1),w
  3915  039D  1D03               	skipz
  3916  039E  2BA1               	goto	u3125
  3917  039F  0854               	movf	(_mEdgeFrontLeftThreshold),w
  3918  03A0  0240               	subwf	(get_sensors@mFrontLeftLine),w
  3919  03A1                     u3125:
  3920  03A1  3000               	movlw	0
  3921  03A2  1C03               	skipc
  3922  03A3  3001               	movlw	1
  3923  03A4  00BE               	movwf	(??_get_sensors+0)+0
  3924  03A5  085A               	movf	(_Sumo),w	;volatile
  3925  03A6  063E               	xorwf	(??_get_sensors+0)+0,w
  3926  03A7  39FE               	andlw	not ((1<<1)-1)
  3927  03A8  063E               	xorwf	(??_get_sensors+0)+0,w
  3928  03A9  00DA               	movwf	(_Sumo)	;volatile
  3929                           opt subtitle "HI-TECH Software Omniscient Code Generator (Lite mode) build 49521"
  3930                           
  3931  03AA  0857               	movf	(_mEdgeFrontRightThreshold+1),w
  3932  03AB  0243               	subwf	(get_sensors@mFrontRightLine+1),w
  3933  03AC  1D03               	skipz
  3934  03AD  2BB0               	goto	u3135
  3935  03AE  0856               	movf	(_mEdgeFrontRightThreshold),w
  3936  03AF  0242               	subwf	(get_sensors@mFrontRightLine),w
  3937  03B0                     u3135:
  3938  03B0  3000               	movlw	0
  3939  03B1  1C03               	skipc
  3940  03B2  3001               	movlw	1
  3941  03B3  00BE               	movwf	(??_get_sensors+0)+0
  3942  03B4  0DBE               	rlf	(??_get_sensors+0)+0,f
  3943  03B5  085A               	movf	(_Sumo),w	;volatile
  3944  03B6  063E               	xorwf	(??_get_sensors+0)+0,w
  3945  03B7  39FD               	andlw	not (((1<<1)-1)<<1)
  3946  03B8  063E               	xorwf	(??_get_sensors+0)+0,w
  3947  03B9  00DA               	movwf	(_Sumo)	;volatile
  3948                           opt subtitle "HI-TECH Software Omniscient Code Generator (Lite mode) build 49521"
  3949                           
  3950  03BA  0851               	movf	(_mEdgeBackLeftThreshold+1),w
  3951  03BB  0245               	subwf	(get_sensors@mBackLeftLine+1),w
  3952  03BC  1D03               	skipz
  3953  03BD  2BC0               	goto	u3145
  3954  03BE  0850               	movf	(_mEdgeBackLeftThreshold),w
  3955  03BF  0244               	subwf	(get_sensors@mBackLeftLine),w
  3956  03C0                     u3145:
  3957  03C0  3000               	movlw	0
  3958  03C1  1C03               	skipc
  3959  03C2  3001               	movlw	1
  3960  03C3  00BE               	movwf	(??_get_sensors+0)+0
  3961  03C4  0DBE               	rlf	(??_get_sensors+0)+0,f
  3962  03C5  0DBE               	rlf	(??_get_sensors+0)+0,f
  3963  03C6  085A               	movf	(_Sumo),w	;volatile
  3964  03C7  063E               	xorwf	(??_get_sensors+0)+0,w
  3965  03C8  39FB               	andlw	not (((1<<1)-1)<<2)
  3966  03C9  063E               	xorwf	(??_get_sensors+0)+0,w
  3967  03CA  00DA               	movwf	(_Sumo)	;volatile
  3968                           opt subtitle "HI-TECH Software Omniscient Code Generator (Lite mode) build 49521"
  3969                           
  3970  03CB  0853               	movf	(_mEdgeBackRightThreshold+1),w
  3971  03CC  0247               	subwf	(get_sensors@mBackRightLine+1),w
  3972  03CD  1D03               	skipz
  3973  03CE  2BD1               	goto	u3155
  3974  03CF  0852               	movf	(_mEdgeBackRightThreshold),w
  3975  03D0  0246               	subwf	(get_sensors@mBackRightLine),w
  3976  03D1                     u3155:
  3977  03D1  3000               	movlw	0
  3978  03D2  1C03               	skipc
  3979  03D3  3001               	movlw	1
  3980  03D4  00BE               	movwf	(??_get_sensors+0)+0
  3981  03D5  0DBE               	rlf	(??_get_sensors+0)+0,f
  3982  03D6  0DBE               	rlf	(??_get_sensors+0)+0,f
  3983  03D7  0DBE               	rlf	(??_get_sensors+0)+0,f
  3984  03D8  085A               	movf	(_Sumo),w	;volatile
  3985  03D9  063E               	xorwf	(??_get_sensors+0)+0,w
  3986  03DA  39F7               	andlw	not (((1<<1)-1)<<3)
  3987  03DB  063E               	xorwf	(??_get_sensors+0)+0,w
  3988  03DC  00DA               	movwf	(_Sumo)	;volatile
  3989                           opt subtitle "HI-TECH Software Omniscient Code Generator (Lite mode) build 49521"
  3990                           
  3991  03DD  094A               	comf	(get_sensors@mRightRange),w
  3992  03DE  00BE               	movwf	(??_get_sensors+0)+0
  3993  03DF  094B               	comf	(get_sensors@mRightRange+1),w
  3994  03E0  00BF               	movwf	((??_get_sensors+0)+0+1)
  3995  03E1  0ABE               	incf	(??_get_sensors+0)+0,f
  3996  03E2  1903               	skipnz
  3997  03E3  0ABF               	incf	((??_get_sensors+0)+0+1),f
  3998  03E4  0848               	movf	(get_sensors@mLeftRange),w
  3999  03E5  073E               	addwf	0+(??_get_sensors+0)+0,w
  4000  03E6  00DD               	movwf	(_rangeDifference)
  4001  03E7  0849               	movf	(get_sensors@mLeftRange+1),w
  4002  03E8  3D3F               	addwfc	1+(??_get_sensors+0)+0,w
  4003  03E9  00DE               	movwf	1+(_rangeDifference)
  4004                           opt subtitle "HI-TECH Software Omniscient Code Generator (Lite mode) build 49521"
  4005                           
  4006  03EA  084A               	movf	(get_sensors@mRightRange),w
  4007  03EB  0748               	addwf	(get_sensors@mLeftRange),w
  4008  03EC  00BE               	movwf	(??_get_sensors+0)+0
  4009  03ED  084B               	movf	(get_sensors@mRightRange+1),w
  4010  03EE  3D49               	addwfc	(get_sensors@mLeftRange+1),w
  4011  03EF  00BF               	movwf	1+(??_get_sensors+0)+0
  4012  03F0  3001               	movlw	01h
  4013  03F1                     u3165:
  4014  03F1  36BF               	lsrf	(??_get_sensors+0)+1,f
  4015  03F2  0CBE               	rrf	(??_get_sensors+0)+0,f
  4016  03F3  0B89               	decfsz	wreg,f
  4017  03F4  2BF1               	goto	u3165
  4018  03F5  083E               	movf	0+(??_get_sensors+0)+0,w
  4019  03F6  00DB               	movwf	(_rangeAverage)
  4020  03F7  083F               	movf	1+(??_get_sensors+0)+0,w
  4021  03F8  00DC               	movwf	(_rangeAverage+1)
  4022                           opt subtitle "HI-TECH Software Omniscient Code Generator (Lite mode) build 49521"
  4023                           
  4024  03F9                     l1847:	
  4025                           opt subtitle "HI-TECH Software Omniscient Code Generator (Lite mode) build 49521"
  4026  03F9  1C7C               	btfss	(_isDebug/8),(_isDebug)&7
  4027  03FA  2BFC               	goto	u3171
  4028  03FB  2BFD               	goto	u3170
  4029  03FC                     u3171:
  4030  03FC  2C27               	goto	l172
  4031  03FD                     u3170:
  4032                           opt subtitle "HI-TECH Software Omniscient Code Generator (Lite mode) build 49521"
  4033                           
  4034  03FD                     l1849:	
  4035                           opt subtitle "HI-TECH Software Omniscient Code Generator (Lite mode) build 49521"
  4036                           
  4037  03FD  0841               	movf	(get_sensors@mFrontLeftLine+1),w
  4038  03FE  01A5               	clrf	(?_printf+1)
  4039  03FF  07A5               	addwf	(?_printf+1)
  4040  0400  0840               	movf	(get_sensors@mFrontLeftLine),w
  4041  0401  01A4               	clrf	(?_printf)
  4042  0402  07A4               	addwf	(?_printf)
  4043                           opt subtitle "HI-TECH Software Omniscient Code Generator (Lite mode) build 49521"
  4044  0403  0843               	movf	(get_sensors@mFrontRightLine+1),w
  4045  0404  01A7               	clrf	1+(?_printf)+02h
  4046  0405  07A7               	addwf	1+(?_printf)+02h
  4047  0406  0842               	movf	(get_sensors@mFrontRightLine),w
  4048  0407  01A6               	clrf	0+(?_printf)+02h
  4049  0408  07A6               	addwf	0+(?_printf)+02h
  4050                           opt subtitle "HI-TECH Software Omniscient Code Generator (Lite mode) build 49521"
  4051  0409  0845               	movf	(get_sensors@mBackLeftLine+1),w
  4052  040A  01A9               	clrf	1+(?_printf)+04h
  4053  040B  07A9               	addwf	1+(?_printf)+04h
  4054  040C  0844               	movf	(get_sensors@mBackLeftLine),w
  4055  040D  01A8               	clrf	0+(?_printf)+04h
  4056  040E  07A8               	addwf	0+(?_printf)+04h
  4057                           opt subtitle "HI-TECH Software Omniscient Code Generator (Lite mode) build 49521"
  4058  040F  0847               	movf	(get_sensors@mBackRightLine+1),w
  4059  0410  01AB               	clrf	1+(?_printf)+06h
  4060  0411  07AB               	addwf	1+(?_printf)+06h
  4061  0412  0846               	movf	(get_sensors@mBackRightLine),w
  4062  0413  01AA               	clrf	0+(?_printf)+06h
  4063  0414  07AA               	addwf	0+(?_printf)+06h
  4064                           opt subtitle "HI-TECH Software Omniscient Code Generator (Lite mode) build 49521"
  4065  0415  0849               	movf	(get_sensors@mLeftRange+1),w
  4066  0416  01AD               	clrf	1+(?_printf)+08h
  4067  0417  07AD               	addwf	1+(?_printf)+08h
  4068  0418  0848               	movf	(get_sensors@mLeftRange),w
  4069  0419  01AC               	clrf	0+(?_printf)+08h
  4070  041A  07AC               	addwf	0+(?_printf)+08h
  4071                           opt subtitle "HI-TECH Software Omniscient Code Generator (Lite mode) build 49521"
  4072  041B  084B               	movf	(get_sensors@mRightRange+1),w
  4073  041C  01AF               	clrf	1+(?_printf)+0Ah
  4074  041D  07AF               	addwf	1+(?_printf)+0Ah
  4075  041E  084A               	movf	(get_sensors@mRightRange),w
  4076  041F  01AE               	clrf	0+(?_printf)+0Ah
  4077  0420  07AE               	addwf	0+(?_printf)+0Ah
  4078                           opt subtitle "HI-TECH Software Omniscient Code Generator (Lite mode) build 49521"
  4079  0421  306C               	movlw	(STR_2|8000h)&0ffh
  4080  0422  3181  2171  3182   	fcall	_printf
  4081  0425  2C27               	goto	l172
  4082                           opt subtitle "HI-TECH Software Omniscient Code Generator (Lite mode) build 49521"
  4083                           
  4084  0426                     l171:	
  4085  0426  2C27               	goto	l172
  4086                           opt subtitle "HI-TECH Software Omniscient Code Generator (Lite mode) build 49521"
  4087                           
  4088  0427                     l1851:	
  4089                           opt subtitle "HI-TECH Software Omniscient Code Generator (Lite mode) build 49521"
  4090                           
  4091                           opt pagewidth 120
  4092                           
  4093  0427                     l172:	
  4094  0427  0008               	return
  4095                           opt subtitle "HI-TECH Software Omniscient Code Generator (Lite mode) build 49521"
  4096                           
  4097  0428                     	__end_of_get_sensors:
  4098                           opt subtitle "HI-TECH Software Omniscient Code Generator (Lite mode) build 49521"
  4099                           
  4100                           opt pagewidth 120
  4101                           
  4102                           	opt lm
  4103                           
  4104                           	processor	16F1937
  4105                           clrc	macro
  4106                           	bcf	3,0
  4107                           	endm
  4108                           clrz	macro
  4109                           	bcf	3,2
  4110                           	endm
  4111                           setc	macro
  4112                           	bsf	3,0
  4113                           	endm
  4114                           setz	macro
  4115                           	bsf	3,2
  4116                           	endm
  4117                           skipc	macro
  4118                           	btfss	3,0
  4119                           	endm
  4120                           skipz	macro
  4121                           	btfss	3,2
  4122                           	endm
  4123                           skipnc	macro
  4124                           	btfsc	3,0
  4125                           	endm
  4126                           skipnz	macro
  4127                           	btfsc	3,2
  4128                           	endm
  4129                           indf	equ	0
  4130                           indf0	equ	0
  4131                           indf1	equ	1
  4132                           pc	equ	2
  4133  06A9                     __ptext444:	;psect for function _ReadADC
  4134                           opt subtitle "HI-TECH Software Omniscient Code Generator (Lite mode) build 49521"
  4135                           
  4136                           opt pagewidth 120
  4137                           
  4138  002A                     	__size_of_ReadADC	equ	__end_of_ReadADC-_ReadADC
  4139                           opt subtitle "HI-TECH Software Omniscient Code Generator (Lite mode) build 49521"
  4140  06A9                     _ReadADC:	
  4141                           opt subtitle "HI-TECH Software Omniscient Code Generator (Lite mode) build 49521"
  4142                           
  4143                           opt pagewidth 120
  4144                           
  4145  06A9  00F4               	movwf	(ReadADC@channel)
  4146                           opt subtitle "HI-TECH Software Omniscient Code Generator (Lite mode) build 49521"
  4147  06AA                     l1205:	
  4148                           opt subtitle "HI-TECH Software Omniscient Code Generator (Lite mode) build 49521"
  4149                           
  4150  06AA  01F5               	clrf	(ReadADC@result)
  4151  06AB  01F6               	clrf	(ReadADC@result+1)
  4152                           opt subtitle "HI-TECH Software Omniscient Code Generator (Lite mode) build 49521"
  4153                           
  4154  06AC                     l1207:	
  4155                           opt subtitle "HI-TECH Software Omniscient Code Generator (Lite mode) build 49521"
  4156  06AC  0874               	movf	(ReadADC@channel),w
  4157  06AD  3907               	andlw	07h
  4158  06AE  00F3               	movwf	(??_ReadADC+0)+0
  4159  06AF  0DF3               	rlf	(??_ReadADC+0)+0,f
  4160  06B0  0DF3               	rlf	(??_ReadADC+0)+0,f
  4161  06B1  0021               	movlb 1	; select bank1
  4162  06B2  081D               	movf	(157)^080h,w	;volatile
  4163  06B3  0673               	xorwf	(??_ReadADC+0)+0,w
  4164  06B4  3983               	andlw	not (((1<<5)-1)<<2)
  4165  06B5  0673               	xorwf	(??_ReadADC+0)+0,w
  4166  06B6  009D               	movwf	(157)^080h	;volatile
  4167                           opt subtitle "HI-TECH Software Omniscient Code Generator (Lite mode) build 49521"
  4168                           
  4169  06B7                     l1209:	
  4170                           opt subtitle "HI-TECH Software Omniscient Code Generator (Lite mode) build 49521"
  4171                           
  4172  06B7  300D               movlw	13
  4173  06B8  00F3               movwf	(??_ReadADC+0)+0,f
  4174  06B9                     u3447:
  4175  06B9  0BF3               decfsz	(??_ReadADC+0)+0,f
  4176  06BA  2EB9               	goto	u3447
  4177                           opt subtitle "HI-TECH Software Omniscient Code Generator (Lite mode) build 49521"
  4178                           
  4179                           opt pagewidth 120
  4180                           
  4181  06BB                     l1211:	
  4182                           opt subtitle "HI-TECH Software Omniscient Code Generator (Lite mode) build 49521"
  4183  06BB  0021               	movlb 1	; select bank1
  4184  06BC  149D               	bsf	(157)^080h,1	;volatile
  4185                           opt subtitle "HI-TECH Software Omniscient Code Generator (Lite mode) build 49521"
  4186                           
  4187  06BD  2EBE               	goto	l16
  4188                           opt subtitle "HI-TECH Software Omniscient Code Generator (Lite mode) build 49521"
  4189  06BE                     l17:	
  4190                           opt subtitle "HI-TECH Software Omniscient Code Generator (Lite mode) build 49521"
  4191  06BE                     l16:	
  4192  06BE  1C9D               	btfss	(157)^080h,1	;volatile
  4193  06BF  2EC1               	goto	u1271
  4194  06C0  2EC2               	goto	u1270
  4195  06C1                     u1271:
  4196  06C1  2EBE               	goto	l16
  4197  06C2                     u1270:
  4198  06C2  2EC3               	goto	l1213
  4199                           opt subtitle "HI-TECH Software Omniscient Code Generator (Lite mode) build 49521"
  4200  06C3                     l18:	
  4201                           opt subtitle "HI-TECH Software Omniscient Code Generator (Lite mode) build 49521"
  4202                           
  4203  06C3                     l1213:	
  4204                           opt subtitle "HI-TECH Software Omniscient Code Generator (Lite mode) build 49521"
  4205  06C3  081C               	movf	(156)^080h,w	;volatile
  4206  06C4  00F3               	movwf	(??_ReadADC+0)+0
  4207  06C5  0873               	movf	(??_ReadADC+0)+0,w
  4208  06C6  00F6               	movwf	0+(ReadADC@result)+01h
  4209                           opt subtitle "HI-TECH Software Omniscient Code Generator (Lite mode) build 49521"
  4210                           
  4211  06C7  081B               	movf	(155)^080h,w	;volatile
  4212  06C8  00F3               	movwf	(??_ReadADC+0)+0
  4213  06C9  0873               	movf	(??_ReadADC+0)+0,w
  4214  06CA  00F5               	movwf	(ReadADC@result)
  4215                           opt subtitle "HI-TECH Software Omniscient Code Generator (Lite mode) build 49521"
  4216                           
  4217  06CB                     l1215:	
  4218                           opt subtitle "HI-TECH Software Omniscient Code Generator (Lite mode) build 49521"
  4219  06CB  0876               	movf	(ReadADC@result+1),w
  4220  06CC  01F2               	clrf	(?_ReadADC+1)
  4221  06CD  07F2               	addwf	(?_ReadADC+1)
  4222  06CE  0875               	movf	(ReadADC@result),w
  4223  06CF  01F1               	clrf	(?_ReadADC)
  4224  06D0  07F1               	addwf	(?_ReadADC)
  4225                           opt subtitle "HI-TECH Software Omniscient Code Generator (Lite mode) build 49521"
  4226  06D1  2ED2               	goto	l19
  4227                           opt subtitle "HI-TECH Software Omniscient Code Generator (Lite mode) build 49521"
  4228  06D2                     l1217:	
  4229                           opt subtitle "HI-TECH Software Omniscient Code Generator (Lite mode) build 49521"
  4230                           
  4231  06D2                     l19:	
  4232  06D2  0008               	return
  4233                           opt subtitle "HI-TECH Software Omniscient Code Generator (Lite mode) build 49521"
  4234                           
  4235  06D3                     	__end_of_ReadADC:
  4236                           opt subtitle "HI-TECH Software Omniscient Code Generator (Lite mode) build 49521"
  4237                           
  4238                           opt pagewidth 120
  4239                           
  4240                           	opt lm
  4241                           
  4242                           	processor	16F1937
  4243                           clrc	macro
  4244                           	bcf	3,0
  4245                           	endm
  4246                           clrz	macro
  4247                           	bcf	3,2
  4248                           	endm
  4249                           setc	macro
  4250                           	bsf	3,0
  4251                           	endm
  4252                           setz	macro
  4253                           	bsf	3,2
  4254                           	endm
  4255                           skipc	macro
  4256                           	btfss	3,0
  4257                           	endm
  4258                           skipz	macro
  4259                           	btfss	3,2
  4260                           	endm
  4261                           skipnc	macro
  4262                           	btfsc	3,0
  4263                           	endm
  4264                           skipnz	macro
  4265                           	btfsc	3,2
  4266                           	endm
  4267                           indf	equ	0
  4268                           indf0	equ	0
  4269                           indf1	equ	1
  4270  04DC                     __ptext445:	;psect for function _sumo_move
  4271                           opt subtitle "HI-TECH Software Omniscient Code Generator (Lite mode) build 49521"
  4272                           
  4273                           opt pagewidth 120
  4274                           
  4275  0085                     	__size_of_sumo_move	equ	__end_of_sumo_move-_sumo_move
  4276                           opt subtitle "HI-TECH Software Omniscient Code Generator (Lite mode) build 49521"
  4277  04DC                     _sumo_move:	
  4278                           opt subtitle "HI-TECH Software Omniscient Code Generator (Lite mode) build 49521"
  4279                           
  4280                           opt pagewidth 120
  4281                           
  4282  04DC  00F1               	movwf	(sumo_move@direction)
  4283                           opt subtitle "HI-TECH Software Omniscient Code Generator (Lite mode) build 49521"
  4284  04DD                     l1461:	
  4285                           opt subtitle "HI-TECH Software Omniscient Code Generator (Lite mode) build 49521"
  4286  04DD  187C               	btfsc	(_isDebug/8),(_isDebug)&7
  4287  04DE  2CE0               	goto	u2001
  4288  04DF  2CE1               	goto	u2000
  4289  04E0                     u2001:
  4290  04E0  2D60               	goto	l156
  4291  04E1                     u2000:
  4292  04E1  2D4E               	goto	l1467
  4293                           opt subtitle "HI-TECH Software Omniscient Code Generator (Lite mode) build 49521"
  4294                           
  4295  04E2                     l1463:	
  4296                           opt subtitle "HI-TECH Software Omniscient Code Generator (Lite mode) build 49521"
  4297                           
  4298  04E2  2D4E               	goto	l1467
  4299                           opt subtitle "HI-TECH Software Omniscient Code Generator (Lite mode) build 49521"
  4300                           
  4301                           opt pagewidth 120
  4302                           
  4303  04E3                     l149:	
  4304                           opt subtitle "HI-TECH Software Omniscient Code Generator (Lite mode) build 49521"
  4305                           
  4306  04E3  0022               	movlb 2	; select bank2
  4307  04E4  158F               	bsf	(271)^0100h,3	;volatile
  4308  04E5  198F               	btfsc	(271)^0100h,3	;volatile
  4309  04E6  2CE8               	goto	u2011
  4310  04E7  2CEB               	goto	u2010
  4311                           opt subtitle "HI-TECH Software Omniscient Code Generator (Lite mode) build 49521"
  4312  04E8                     u2011:
  4313  04E8  0022               	movlb 2	; select bank2
  4314  04E9  140F               	bsf	(271)^0100h,0	;volatile
  4315  04EA  2CED               	goto	u2024
  4316  04EB                     u2010:
  4317  04EB  0022               	movlb 2	; select bank2
  4318  04EC  100F               	bcf	(271)^0100h,0	;volatile
  4319  04ED                     u2024:
  4320                           opt subtitle "HI-TECH Software Omniscient Code Generator (Lite mode) build 49521"
  4321                           
  4322  04ED  110F               	bcf	(271)^0100h,2	;volatile
  4323  04EE  108F               	bcf	(271)^0100h,1	;volatile
  4324                           opt subtitle "HI-TECH Software Omniscient Code Generator (Lite mode) build 49521"
  4325                           
  4326  04EF  2D60               	goto	l156
  4327                           opt subtitle "HI-TECH Software Omniscient Code Generator (Lite mode) build 49521"
  4328                           
  4329                           opt pagewidth 120
  4330  04F0                     l151:	
  4331                           opt subtitle "HI-TECH Software Omniscient Code Generator (Lite mode) build 49521"
  4332                           
  4333  04F0  0022               	movlb 2	; select bank2
  4334  04F1  118F               	bcf	(271)^0100h,3	;volatile
  4335  04F2  100F               	bcf	(271)^0100h,0	;volatile
  4336                           opt subtitle "HI-TECH Software Omniscient Code Generator (Lite mode) build 49521"
  4337                           
  4338  04F3  150F               	bsf	(271)^0100h,2	;volatile
  4339  04F4  190F               	btfsc	(271)^0100h,2	;volatile
  4340  04F5  2CF7               	goto	u2031
  4341  04F6  2CFA               	goto	u2030
  4342                           opt subtitle "HI-TECH Software Omniscient Code Generator (Lite mode) build 49521"
  4343  04F7                     u2031:
  4344  04F7  0022               	movlb 2	; select bank2
  4345  04F8  148F               	bsf	(271)^0100h,1	;volatile
  4346  04F9  2CFC               	goto	u2044
  4347  04FA                     u2030:
  4348  04FA  0022               	movlb 2	; select bank2
  4349  04FB  108F               	bcf	(271)^0100h,1	;volatile
  4350  04FC                     u2044:
  4351                           opt subtitle "HI-TECH Software Omniscient Code Generator (Lite mode) build 49521"
  4352                           
  4353  04FC  2D60               	goto	l156
  4354                           opt subtitle "HI-TECH Software Omniscient Code Generator (Lite mode) build 49521"
  4355                           
  4356                           opt pagewidth 120
  4357  04FD                     l152:	
  4358                           opt subtitle "HI-TECH Software Omniscient Code Generator (Lite mode) build 49521"
  4359                           
  4360  04FD  0022               	movlb 2	; select bank2
  4361  04FE  158F               	bsf	(271)^0100h,3	;volatile
  4362  04FF  198F               	btfsc	(271)^0100h,3	;volatile
  4363  0500  2D02               	goto	u2051
  4364  0501  2D05               	goto	u2050
  4365                           opt subtitle "HI-TECH Software Omniscient Code Generator (Lite mode) build 49521"
  4366  0502                     u2051:
  4367  0502  0022               	movlb 2	; select bank2
  4368  0503  148F               	bsf	(271)^0100h,1	;volatile
  4369  0504  2D07               	goto	u2064
  4370  0505                     u2050:
  4371  0505  0022               	movlb 2	; select bank2
  4372  0506  108F               	bcf	(271)^0100h,1	;volatile
  4373  0507                     u2064:
  4374                           opt subtitle "HI-TECH Software Omniscient Code Generator (Lite mode) build 49521"
  4375                           
  4376  0507  110F               	bcf	(271)^0100h,2	;volatile
  4377  0508  100F               	bcf	(271)^0100h,0	;volatile
  4378                           opt subtitle "HI-TECH Software Omniscient Code Generator (Lite mode) build 49521"
  4379                           
  4380  0509  2D60               	goto	l156
  4381                           opt subtitle "HI-TECH Software Omniscient Code Generator (Lite mode) build 49521"
  4382                           
  4383                           opt pagewidth 120
  4384  050A                     l153:	
  4385                           opt subtitle "HI-TECH Software Omniscient Code Generator (Lite mode) build 49521"
  4386                           
  4387  050A  0022               	movlb 2	; select bank2
  4388  050B  150F               	bsf	(271)^0100h,2	;volatile
  4389  050C  190F               	btfsc	(271)^0100h,2	;volatile
  4390  050D  2D0F               	goto	u2071
  4391  050E  2D12               	goto	u2070
  4392                           opt subtitle "HI-TECH Software Omniscient Code Generator (Lite mode) build 49521"
  4393  050F                     u2071:
  4394  050F  0022               	movlb 2	; select bank2
  4395  0510  140F               	bsf	(271)^0100h,0	;volatile
  4396  0511  2D14               	goto	u2084
  4397  0512                     u2070:
  4398  0512  0022               	movlb 2	; select bank2
  4399  0513  100F               	bcf	(271)^0100h,0	;volatile
  4400  0514                     u2084:
  4401                           opt subtitle "HI-TECH Software Omniscient Code Generator (Lite mode) build 49521"
  4402                           
  4403  0514  118F               	bcf	(271)^0100h,3	;volatile
  4404  0515  108F               	bcf	(271)^0100h,1	;volatile
  4405                           opt subtitle "HI-TECH Software Omniscient Code Generator (Lite mode) build 49521"
  4406                           
  4407  0516  2D60               	goto	l156
  4408                           opt subtitle "HI-TECH Software Omniscient Code Generator (Lite mode) build 49521"
  4409                           
  4410                           opt pagewidth 120
  4411  0517                     l154:	
  4412                           opt subtitle "HI-TECH Software Omniscient Code Generator (Lite mode) build 49521"
  4413                           
  4414  0517  0022               	movlb 2	; select bank2
  4415  0518  150F               	bsf	(271)^0100h,2	;volatile
  4416  0519  190F               	btfsc	(271)^0100h,2	;volatile
  4417  051A  2D1C               	goto	u2091
  4418  051B  2D1F               	goto	u2090
  4419                           opt subtitle "HI-TECH Software Omniscient Code Generator (Lite mode) build 49521"
  4420  051C                     u2091:
  4421  051C  0022               	movlb 2	; select bank2
  4422  051D  158F               	bsf	(271)^0100h,3	;volatile
  4423  051E  2D21               	goto	u2104
  4424  051F                     u2090:
  4425  051F  0022               	movlb 2	; select bank2
  4426  0520  118F               	bcf	(271)^0100h,3	;volatile
  4427  0521                     u2104:
  4428  0521  198F               	btfsc	(271)^0100h,3	;volatile
  4429  0522  2D24               	goto	u2101
  4430  0523  2D27               	goto	u2100
  4431                           opt subtitle "HI-TECH Software Omniscient Code Generator (Lite mode) build 49521"
  4432  0524                     u2101:
  4433  0524  0022               	movlb 2	; select bank2
  4434  0525  148F               	bsf	(271)^0100h,1	;volatile
  4435  0526  2D29               	goto	u2114
  4436  0527                     u2100:
  4437  0527  0022               	movlb 2	; select bank2
  4438  0528  108F               	bcf	(271)^0100h,1	;volatile
  4439  0529                     u2114:
  4440  0529  188F               	btfsc	(271)^0100h,1	;volatile
  4441  052A  2D2C               	goto	u2111
  4442  052B  2D2F               	goto	u2110
  4443                           opt subtitle "HI-TECH Software Omniscient Code Generator (Lite mode) build 49521"
  4444  052C                     u2111:
  4445  052C  0022               	movlb 2	; select bank2
  4446  052D  140F               	bsf	(271)^0100h,0	;volatile
  4447  052E  2D31               	goto	u2124
  4448  052F                     u2110:
  4449  052F  0022               	movlb 2	; select bank2
  4450  0530  100F               	bcf	(271)^0100h,0	;volatile
  4451  0531                     u2124:
  4452                           opt subtitle "HI-TECH Software Omniscient Code Generator (Lite mode) build 49521"
  4453                           
  4454  0531  2D60               	goto	l156
  4455                           opt subtitle "HI-TECH Software Omniscient Code Generator (Lite mode) build 49521"
  4456                           
  4457                           opt pagewidth 120
  4458  0532                     l155:	
  4459                           opt subtitle "HI-TECH Software Omniscient Code Generator (Lite mode) build 49521"
  4460                           
  4461  0532  0022               	movlb 2	; select bank2
  4462  0533  150F               	bsf	(271)^0100h,2	;volatile
  4463  0534  190F               	btfsc	(271)^0100h,2	;volatile
  4464  0535  2D37               	goto	u2131
  4465  0536  2D3A               	goto	u2130
  4466                           opt subtitle "HI-TECH Software Omniscient Code Generator (Lite mode) build 49521"
  4467  0537                     u2131:
  4468  0537  0022               	movlb 2	; select bank2
  4469  0538  158F               	bsf	(271)^0100h,3	;volatile
  4470  0539  2D3C               	goto	u2144
  4471  053A                     u2130:
  4472  053A  0022               	movlb 2	; select bank2
  4473  053B  118F               	bcf	(271)^0100h,3	;volatile
  4474  053C                     u2144:
  4475  053C  198F               	btfsc	(271)^0100h,3	;volatile
  4476  053D  2D3F               	goto	u2141
  4477  053E  2D42               	goto	u2140
  4478                           opt subtitle "HI-TECH Software Omniscient Code Generator (Lite mode) build 49521"
  4479  053F                     u2141:
  4480  053F  0022               	movlb 2	; select bank2
  4481  0540  148F               	bsf	(271)^0100h,1	;volatile
  4482  0541  2D44               	goto	u2154
  4483  0542                     u2140:
  4484  0542  0022               	movlb 2	; select bank2
  4485  0543  108F               	bcf	(271)^0100h,1	;volatile
  4486  0544                     u2154:
  4487  0544  188F               	btfsc	(271)^0100h,1	;volatile
  4488  0545  2D47               	goto	u2151
  4489  0546  2D4A               	goto	u2150
  4490                           opt subtitle "HI-TECH Software Omniscient Code Generator (Lite mode) build 49521"
  4491  0547                     u2151:
  4492  0547  0022               	movlb 2	; select bank2
  4493  0548  140F               	bsf	(271)^0100h,0	;volatile
  4494  0549  2D4C               	goto	u2164
  4495  054A                     u2150:
  4496  054A  0022               	movlb 2	; select bank2
  4497  054B  100F               	bcf	(271)^0100h,0	;volatile
  4498  054C                     u2164:
  4499                           opt subtitle "HI-TECH Software Omniscient Code Generator (Lite mode) build 49521"
  4500                           
  4501  054C  2D60               	goto	l156
  4502                           opt subtitle "HI-TECH Software Omniscient Code Generator (Lite mode) build 49521"
  4503                           
  4504  054D                     l1465:	
  4505                           opt subtitle "HI-TECH Software Omniscient Code Generator (Lite mode) build 49521"
  4506  054D  2D60               	goto	l156
  4507                           opt subtitle "HI-TECH Software Omniscient Code Generator (Lite mode) build 49521"
  4508                           
  4509  054E                     l148:	
  4510                           opt subtitle "HI-TECH Software Omniscient Code Generator (Lite mode) build 49521"
  4511  054E                     l1467:	
  4512  054E  0871               	movf	(sumo_move@direction),w
  4513                           opt subtitle "HI-TECH Software Omniscient Code Generator (Lite mode) build 49521"
  4514                           
  4515                           opt pagewidth 120
  4516                           
  4517                           	opt lm
  4518                           
  4519                           	processor	16F1937
  4520                           clrc	macro
  4521                           	bcf	3,0
  4522                           	endm
  4523  054F  3A62               	xorlw	98^0	; case 98
  4524  0550  1903               	skipnz
  4525  0551  2CF0               	goto	l151
  4526  0552  3A04               	xorlw	102^98	; case 102
  4527  0553  1903               	skipnz
  4528  0554  2CE3               	goto	l149
  4529  0555  3A0A               	xorlw	108^102	; case 108
  4530  0556  1903               	skipnz
  4531  0557  2CFD               	goto	l152
  4532  0558  3A1E               	xorlw	114^108	; case 114
  4533  0559  1903               	skipnz
  4534  055A  2D0A               	goto	l153
  4535  055B  3A01               	xorlw	115^114	; case 115
  4536  055C  1903               	skipnz
  4537  055D  2D17               	goto	l154
  4538  055E  2D32               	goto	l155
  4539                           opt subtitle "HI-TECH Software Omniscient Code Generator (Lite mode) build 49521"
  4540                           
  4541                           opt pagewidth 120
  4542                           
  4543  055F                     l150:	
  4544  055F  2D60               	goto	l156
  4545                           opt subtitle "HI-TECH Software Omniscient Code Generator (Lite mode) build 49521"
  4546                           
  4547  0560                     l147:	
  4548                           opt subtitle "HI-TECH Software Omniscient Code Generator (Lite mode) build 49521"
  4549                           
  4550                           opt pagewidth 120
  4551                           
  4552  0560                     l156:	
  4553  0560  0008               	return
  4554                           opt subtitle "HI-TECH Software Omniscient Code Generator (Lite mode) build 49521"
  4555                           
  4556  0561                     	__end_of_sumo_move:
  4557                           opt subtitle "HI-TECH Software Omniscient Code Generator (Lite mode) build 49521"
  4558                           
  4559                           opt pagewidth 120
  4560                           
  4561                           	opt lm
  4562                           
  4563                           	processor	16F1937
  4564                           clrc	macro
  4565                           	bcf	3,0
  4566                           	endm
  4567                           clrz	macro
  4568                           	bcf	3,2
  4569                           	endm
  4570                           setc	macro
  4571                           	bsf	3,0
  4572                           	endm
  4573                           setz	macro
  4574                           	bsf	3,2
  4575                           	endm
  4576                           skipc	macro
  4577                           	btfss	3,0
  4578                           	endm
  4579                           skipz	macro
  4580                           	btfss	3,2
  4581                           	endm
  4582                           skipnc	macro
  4583                           	btfsc	3,0
  4584                           	endm
  4585                           skipnz	macro
  4586                           	btfsc	3,2
  4587                           	endm
  4588                           indf	equ	0
  4589                           indf0	equ	0
  4590                           indf1	equ	1
  4591                           pc	equ	2
  4592                           pcl	equ	2
  4593                           status	equ	3
  4594                           fsr0l	equ	4
  4595                           fsr0h	equ	5
  4596                           fsr1l	equ	6
  4597                           fsr1h	equ	7
  4598                           bsr	equ	8
  4599                           wreg	equ	9
  4600                           intcon	equ	11
  4601                           c	equ	1
  4602                           z	equ	0
  4603                           pclath	equ	10
  4604                           # 46 "/opt/microchip/xc8/v1.12/include/pic16f1937.h"
  4605  0171                     __ptext446:	;psect for function _printf
  4606                           opt subtitle "HI-TECH Software Omniscient Code Generator (Lite mode) build 49521"
  4607                           
  4608                           opt pagewidth 120
  4609                           
  4610  0164                     	__size_of_printf	equ	__end_of_printf-_printf
  4611                           opt subtitle "HI-TECH Software Omniscient Code Generator (Lite mode) build 49521"
  4612  0171                     _printf:	
  4613                           opt subtitle "HI-TECH Software Omniscient Code Generator (Lite mode) build 49521"
  4614                           
  4615                           opt pagewidth 120
  4616                           
  4617  0171  0020               	movlb 0	; select bank0
  4618  0172  00BA               	movwf	(printf@f)
  4619                           opt subtitle "HI-TECH Software Omniscient Code Generator (Lite mode) build 49521"
  4620  0173                     l1853:	
  4621                           opt subtitle "HI-TECH Software Omniscient Code Generator (Lite mode) build 49521"
  4622                           
  4623                           opt pagewidth 120
  4624                           
  4625                           	opt lm
  4626                           
  4627                           	processor	16F1937
  4628                           clrc	macro
  4629                           	bcf	3,0
  4630                           	endm
  4631                           clrz	macro
  4632                           	bcf	3,2
  4633                           	endm
  4634  0173  3024               	movlw	(?_printf)&0ffh
  4635  0174  00B0               	movwf	(??_printf+0)+0
  4636  0175  0830               	movf	(??_printf+0)+0,w
  4637  0176  00B3               	movwf	(printf@ap)
  4638                           opt subtitle "HI-TECH Software Omniscient Code Generator (Lite mode) build 49521"
  4639                           
  4640  0177  2AC2               	goto	l1929
  4641                           opt subtitle "HI-TECH Software Omniscient Code Generator (Lite mode) build 49521"
  4642  0178                     l222:	
  4643                           opt subtitle "HI-TECH Software Omniscient Code Generator (Lite mode) build 49521"
  4644                           
  4645  0178                     l1855:	
  4646                           opt subtitle "HI-TECH Software Omniscient Code Generator (Lite mode) build 49521"
  4647  0178  083D               	movf	(printf@c),w
  4648  0179  3A25               	xorlw	025h&0ffh
  4649  017A  1903               	skipnz
  4650  017B  297D               	goto	u3181
  4651  017C  297E               	goto	u3180
  4652  017D                     u3181:
  4653  017D  2983               	goto	l1859
  4654  017E                     u3180:
  4655                           opt subtitle "HI-TECH Software Omniscient Code Generator (Lite mode) build 49521"
  4656                           
  4657  017E                     l1857:	
  4658                           opt subtitle "HI-TECH Software Omniscient Code Generator (Lite mode) build 49521"
  4659                           
  4660  017E  083D               	movf	(printf@c),w
  4661  017F  3187  2757  3181   	fcall	_putch
  4662                           opt subtitle "HI-TECH Software Omniscient Code Generator (Lite mode) build 49521"
  4663                           
  4664  0182  2AC2               	goto	l1929
  4665                           opt subtitle "HI-TECH Software Omniscient Code Generator (Lite mode) build 49521"
  4666                           
  4667  0183                     l223:	
  4668                           opt subtitle "HI-TECH Software Omniscient Code Generator (Lite mode) build 49521"
  4669                           
  4670  0183                     l1859:	
  4671                           opt subtitle "HI-TECH Software Omniscient Code Generator (Lite mode) build 49521"
  4672                           
  4673  0183  0020               	movlb 0	; select bank0
  4674  0184  01BB               	clrf	(printf@width)
  4675  0185  01BC               	clrf	(printf@width+1)
  4676                           opt subtitle "HI-TECH Software Omniscient Code Generator (Lite mode) build 49521"
  4677                           
  4678  0186                     l1861:	
  4679                           opt subtitle "HI-TECH Software Omniscient Code Generator (Lite mode) build 49521"
  4680  0186  01B5               	clrf	(printf@flag)
  4681                           opt subtitle "HI-TECH Software Omniscient Code Generator (Lite mode) build 49521"
  4682                           
  4683  0187                     l1863:	
  4684                           opt subtitle "HI-TECH Software Omniscient Code Generator (Lite mode) build 49521"
  4685  0187  083A               	movf	(printf@f),w
  4686  0188  3185               	movlp	high __stringtab
  4687  0189  000A               	callw
  4688  018A  3181               	pagesel	$ ;select current page
  4689  018B  3187  2729  3181   	fcall	_isdigit
  4690  018E  1C03               	btfss	status,0
  4691  018F  2991               	goto	u3191
  4692  0190  2992               	goto	u3190
  4693  0191                     u3191:
  4694  0191  29D0               	goto	l1877
  4695  0192                     u3190:
  4696                           opt subtitle "HI-TECH Software Omniscient Code Generator (Lite mode) build 49521"
  4697                           
  4698  0192                     l1865:	
  4699                           opt subtitle "HI-TECH Software Omniscient Code Generator (Lite mode) build 49521"
  4700  0192  0020               	movlb 0	; select bank0
  4701  0193  01BB               	clrf	(printf@width)
  4702  0194  01BC               	clrf	(printf@width+1)
  4703  0195  2996               	goto	l1867
  4704                           opt subtitle "HI-TECH Software Omniscient Code Generator (Lite mode) build 49521"
  4705                           
  4706                           opt pagewidth 120
  4707  0196                     l225:	
  4708                           opt subtitle "HI-TECH Software Omniscient Code Generator (Lite mode) build 49521"
  4709                           
  4710  0196                     l1867:	
  4711                           opt subtitle "HI-TECH Software Omniscient Code Generator (Lite mode) build 49521"
  4712  0196  300A               	movlw	low(0Ah)
  4713  0197  00F1               	movwf	(?___wmul)
  4714  0198  3000               	movlw	high(0Ah)
  4715  0199  00F2               	movwf	((?___wmul))+1
  4716  019A  0020               	movlb 0	; select bank0
  4717  019B  083C               	movf	(printf@width+1),w
  4718  019C  01F4               	clrf	1+(?___wmul)+02h
  4719  019D  07F4               	addwf	1+(?___wmul)+02h
  4720  019E  083B               	movf	(printf@width),w
  4721  019F  01F3               	clrf	0+(?___wmul)+02h
  4722  01A0  07F3               	addwf	0+(?___wmul)+02h
  4723                           opt subtitle "HI-TECH Software Omniscient Code Generator (Lite mode) build 49521"
  4724  01A1  3186  26D3  3181   	fcall	___wmul
  4725  01A4  0872               	movf	(1+(?___wmul)),w
  4726  01A5  0020               	movlb 0	; select bank0
  4727  01A6  01BC               	clrf	(printf@width+1)
  4728  01A7  07BC               	addwf	(printf@width+1)
  4729  01A8  0871               	movf	(0+(?___wmul)),w
  4730  01A9  01BB               	clrf	(printf@width)
  4731  01AA  07BB               	addwf	(printf@width)
  4732                           opt subtitle "HI-TECH Software Omniscient Code Generator (Lite mode) build 49521"
  4733                           
  4734                           opt pagewidth 120
  4735  01AB                     l1869:	
  4736                           opt subtitle "HI-TECH Software Omniscient Code Generator (Lite mode) build 49521"
  4737  01AB  083A               	movf	(printf@f),w
  4738  01AC  3185               	movlp	high __stringtab
  4739  01AD  000A               	callw
  4740  01AE  3181               	pagesel	$ ;select current page
  4741  01AF  3ED0               	addlw	low(-48)
  4742  01B0  00B0               	movwf	(??_printf+0)+0
  4743  01B1  30FF               	movlw	high(-48)
  4744  01B2  1803               	skipnc
  4745  01B3  3000               	movlw	(high(-48)+1)&0ffh
  4746  01B4  00B1               	movwf	((??_printf+0)+0)+1
  4747  01B5  0830               	movf	0+(??_printf+0)+0,w
  4748  01B6  07BB               	addwf	(printf@width),f
  4749  01B7  0831               	movf	1+(??_printf+0)+0,w
  4750  01B8  3DBC               	addwfc	(printf@width+1),f
  4751                           opt subtitle "HI-TECH Software Omniscient Code Generator (Lite mode) build 49521"
  4752  01B9                     l1871:	
  4753  01B9  3001               	movlw	(01h)
  4754  01BA  00B0               	movwf	(??_printf+0)+0
  4755  01BB  0830               	movf	(??_printf+0)+0,w
  4756  01BC  07BA               	addwf	(printf@f),f
  4757                           opt subtitle "HI-TECH Software Omniscient Code Generator (Lite mode) build 49521"
  4758                           
  4759  01BD                     l1873:	
  4760                           opt subtitle "HI-TECH Software Omniscient Code Generator (Lite mode) build 49521"
  4761  01BD  083A               	movf	(printf@f),w
  4762  01BE  3185               	movlp	high __stringtab
  4763  01BF  000A               	callw
  4764  01C0  3181               	pagesel	$ ;select current page
  4765  01C1  3187  2729  3181   	fcall	_isdigit
  4766  01C4  1803               	btfsc	status,0
  4767  01C5  29C7               	goto	u3201
  4768  01C6  29C8               	goto	u3200
  4769  01C7                     u3201:
  4770  01C7  2996               	goto	l1867
  4771  01C8                     u3200:
  4772  01C8  29D0               	goto	l1877
  4773                           opt subtitle "HI-TECH Software Omniscient Code Generator (Lite mode) build 49521"
  4774  01C9                     l226:	
  4775  01C9  29D0               	goto	l1877
  4776                           opt subtitle "HI-TECH Software Omniscient Code Generator (Lite mode) build 49521"
  4777                           
  4778  01CA                     l224:	
  4779                           opt subtitle "HI-TECH Software Omniscient Code Generator (Lite mode) build 49521"
  4780                           
  4781                           opt pagewidth 120
  4782  01CA  29D0               	goto	l1877
  4783                           opt subtitle "HI-TECH Software Omniscient Code Generator (Lite mode) build 49521"
  4784                           
  4785                           opt pagewidth 120
  4786  01CB                     l228:	
  4787                           opt subtitle "HI-TECH Software Omniscient Code Generator (Lite mode) build 49521"
  4788                           
  4789  01CB  2AD4               	goto	l249
  4790                           opt subtitle "HI-TECH Software Omniscient Code Generator (Lite mode) build 49521"
  4791                           
  4792                           opt pagewidth 120
  4793  01CC                     l230:	
  4794  01CC  29E3               	goto	l1879
  4795                           opt subtitle "HI-TECH Software Omniscient Code Generator (Lite mode) build 49521"
  4796                           
  4797  01CD                     l231:	
  4798                           opt subtitle "HI-TECH Software Omniscient Code Generator (Lite mode) build 49521"
  4799                           
  4800                           opt pagewidth 120
  4801  01CD  29E3               	goto	l1879
  4802                           opt subtitle "HI-TECH Software Omniscient Code Generator (Lite mode) build 49521"
  4803                           
  4804                           opt pagewidth 120
  4805  01CE                     l233:	
  4806                           opt subtitle "HI-TECH Software Omniscient Code Generator (Lite mode) build 49521"
  4807                           
  4808  01CE  2AC2               	goto	l1929
  4809                           opt subtitle "HI-TECH Software Omniscient Code Generator (Lite mode) build 49521"
  4810                           
  4811  01CF                     l1875:	
  4812                           opt subtitle "HI-TECH Software Omniscient Code Generator (Lite mode) build 49521"
  4813  01CF  29E3               	goto	l1879
  4814                           opt subtitle "HI-TECH Software Omniscient Code Generator (Lite mode) build 49521"
  4815                           
  4816  01D0                     l227:	
  4817                           opt subtitle "HI-TECH Software Omniscient Code Generator (Lite mode) build 49521"
  4818  01D0                     l1877:	
  4819  01D0  3001               	movlw	01h
  4820  01D1  0020               	movlb 0	; select bank0
  4821  01D2  07BA               	addwf	(printf@f),f
  4822  01D3  30FF               	movlw	-01h
  4823  01D4  073A               	addwf	(printf@f),w
  4824  01D5  3185               	movlp	high __stringtab
  4825  01D6  000A               	callw
  4826  01D7  3181               	pagesel	$ ;select current page
  4827  01D8  00BD               	movwf	(printf@c)
  4828                           opt subtitle "HI-TECH Software Omniscient Code Generator (Lite mode) build 49521"
  4829                           
  4830                           opt pagewidth 120
  4831                           
  4832                           	opt lm
  4833                           
  4834                           	processor	16F1937
  4835                           clrc	macro
  4836                           	bcf	3,0
  4837                           	endm
  4838                           clrz	macro
  4839                           	bcf	3,2
  4840                           	endm
  4841  01D9  3A00               	xorlw	0^0	; case 0
  4842  01DA  1903               	skipnz
  4843  01DB  2AD4               	goto	l249
  4844  01DC  3A64               	xorlw	100^0	; case 100
  4845  01DD  1903               	skipnz
  4846  01DE  29E3               	goto	l1879
  4847  01DF  3A0D               	xorlw	105^100	; case 105
  4848  01E0  1903               	skipnz
  4849  01E1  29E3               	goto	l1879
  4850  01E2  2AC2               	goto	l1929
  4851                           opt subtitle "HI-TECH Software Omniscient Code Generator (Lite mode) build 49521"
  4852                           
  4853                           opt pagewidth 120
  4854                           
  4855  01E3                     l232:	
  4856                           opt subtitle "HI-TECH Software Omniscient Code Generator (Lite mode) build 49521"
  4857                           
  4858  01E3                     l1879:	
  4859                           opt subtitle "HI-TECH Software Omniscient Code Generator (Lite mode) build 49521"
  4860                           
  4861  01E3  0020               	movlb 0	; select bank0
  4862  01E4  0833               	movf	(printf@ap),w
  4863  01E5  0086               	movwf	fsr1l
  4864  01E6  0187               	clrf fsr1h	
  4865                           opt subtitle "HI-TECH Software Omniscient Code Generator (Lite mode) build 49521"
  4866  01E7  3F40               	moviw	[0]fsr1
  4867  01E8  00B6               	movwf	(printf@_val)
  4868  01E9  3F41               	moviw	[1]fsr1
  4869  01EA  00B7               	movwf	(printf@_val+1)
  4870                           opt subtitle "HI-TECH Software Omniscient Code Generator (Lite mode) build 49521"
  4871  01EB                     l1881:	
  4872  01EB  3002               	movlw	(02h)
  4873  01EC  00B0               	movwf	(??_printf+0)+0
  4874  01ED  0830               	movf	(??_printf+0)+0,w
  4875  01EE  07B3               	addwf	(printf@ap),f
  4876                           opt subtitle "HI-TECH Software Omniscient Code Generator (Lite mode) build 49521"
  4877                           
  4878  01EF                     l1883:	
  4879                           opt subtitle "HI-TECH Software Omniscient Code Generator (Lite mode) build 49521"
  4880  01EF  1FB7               	btfss	(printf@_val+1),7
  4881  01F0  29F2               	goto	u3211
  4882  01F1  29F3               	goto	u3210
  4883  01F2                     u3211:
  4884  01F2  29FD               	goto	l1889
  4885  01F3                     u3210:
  4886                           opt subtitle "HI-TECH Software Omniscient Code Generator (Lite mode) build 49521"
  4887                           
  4888  01F3                     l1885:	
  4889                           opt subtitle "HI-TECH Software Omniscient Code Generator (Lite mode) build 49521"
  4890  01F3  3003               	movlw	(03h)
  4891  01F4  00B0               	movwf	(??_printf+0)+0
  4892  01F5  0830               	movf	(??_printf+0)+0,w
  4893  01F6  04B5               	iorwf	(printf@flag),f
  4894                           opt subtitle "HI-TECH Software Omniscient Code Generator (Lite mode) build 49521"
  4895                           
  4896  01F7                     l1887:	
  4897                           opt subtitle "HI-TECH Software Omniscient Code Generator (Lite mode) build 49521"
  4898  01F7  09B6               	comf	(printf@_val),f
  4899  01F8  09B7               	comf	(printf@_val+1),f
  4900  01F9  0AB6               	incf	(printf@_val),f
  4901  01FA  1903               	skipnz
  4902  01FB  0AB7               	incf	(printf@_val+1),f
  4903  01FC  29FD               	goto	l1889
  4904                           opt subtitle "HI-TECH Software Omniscient Code Generator (Lite mode) build 49521"
  4905                           
  4906  01FD                     l234:	
  4907                           opt subtitle "HI-TECH Software Omniscient Code Generator (Lite mode) build 49521"
  4908                           
  4909  01FD                     l1889:	
  4910                           opt subtitle "HI-TECH Software Omniscient Code Generator (Lite mode) build 49521"
  4911                           
  4912                           opt pagewidth 120
  4913  01FD  01BD               	clrf	(printf@c)
  4914  01FE  0ABD               	incf	(printf@c),f
  4915  01FF  083D               	movf	(printf@c),w
  4916  0200  3A05               	xorlw	05h&0ffh
  4917  0201  1D03               	skipz
  4918  0202  2A04               	goto	u3221
  4919  0203  2A05               	goto	u3220
  4920  0204                     u3221:
  4921  0204  2A07               	goto	l1893
  4922  0205                     u3220:
  4923  0205  2A2B               	goto	l1901
  4924                           opt subtitle "HI-TECH Software Omniscient Code Generator (Lite mode) build 49521"
  4925  0206                     l1891:	
  4926  0206  2A2B               	goto	l1901
  4927                           opt subtitle "HI-TECH Software Omniscient Code Generator (Lite mode) build 49521"
  4928                           
  4929  0207                     l235:	
  4930                           opt subtitle "HI-TECH Software Omniscient Code Generator (Lite mode) build 49521"
  4931  0207                     l1893:	
  4932                           opt subtitle "HI-TECH Software Omniscient Code Generator (Lite mode) build 49521"
  4933  0207  3062               	movlw	low(_dpowers|8000h)
  4934  0208  0084               	movwf	fsr0l
  4935  0209  3085               	movlw	high(_dpowers|8000h)
  4936  020A  0085               	movwf	fsr0h
  4937  020B  083D               	movf	(printf@c),w
  4938  020C  0709               	addwf	wreg,w
  4939  020D  0784               	addwf	fsr0l,f
  4940  020E  1803               	skipnc
  4941  020F  0A85               	incf	fsr0h,f
  4942  0210  3F00               	moviw	[0]fsr0
  4943  0211  00B0               	movwf	(??_printf+0)+0
  4944  0212  3F01               	moviw	[1]fsr0
  4945  0213  00B1               	movwf	(??_printf+0)+0+1
  4946  0214  0831               	movf	1+(??_printf+0)+0,w
  4947  0215  0237               	subwf	(printf@_val+1),w
  4948  0216  1D03               	skipz
  4949  0217  2A1A               	goto	u3235
  4950  0218  0830               	movf	0+(??_printf+0)+0,w
  4951  0219  0236               	subwf	(printf@_val),w
  4952  021A                     u3235:
  4953  021A  1803               	skipnc
  4954  021B  2A1D               	goto	u3231
  4955  021C  2A1E               	goto	u3230
  4956  021D                     u3231:
  4957  021D  2A20               	goto	l1897
  4958  021E                     u3230:
  4959  021E  2A2B               	goto	l1901
  4960                           opt subtitle "HI-TECH Software Omniscient Code Generator (Lite mode) build 49521"
  4961                           
  4962  021F                     l1895:	
  4963                           opt subtitle "HI-TECH Software Omniscient Code Generator (Lite mode) build 49521"
  4964  021F  2A2B               	goto	l1901
  4965                           opt subtitle "HI-TECH Software Omniscient Code Generator (Lite mode) build 49521"
  4966  0220                     l237:	
  4967                           opt subtitle "HI-TECH Software Omniscient Code Generator (Lite mode) build 49521"
  4968                           
  4969  0220                     l1897:	
  4970  0220  3001               	movlw	(01h)
  4971  0221  00B0               	movwf	(??_printf+0)+0
  4972  0222  0830               	movf	(??_printf+0)+0,w
  4973  0223  07BD               	addwf	(printf@c),f
  4974                           opt subtitle "HI-TECH Software Omniscient Code Generator (Lite mode) build 49521"
  4975  0224                     l1899:	
  4976  0224  083D               	movf	(printf@c),w
  4977  0225  3A05               	xorlw	05h&0ffh
  4978  0226  1D03               	skipz
  4979  0227  2A29               	goto	u3241
  4980  0228  2A2A               	goto	u3240
  4981  0229                     u3241:
  4982  0229  2A07               	goto	l1893
  4983  022A                     u3240:
  4984  022A  2A2B               	goto	l1901
  4985                           opt subtitle "HI-TECH Software Omniscient Code Generator (Lite mode) build 49521"
  4986  022B                     l236:	
  4987                           opt subtitle "HI-TECH Software Omniscient Code Generator (Lite mode) build 49521"
  4988                           
  4989  022B                     l1901:	
  4990                           opt subtitle "HI-TECH Software Omniscient Code Generator (Lite mode) build 49521"
  4991  022B  083C               	movf	(printf@width+1),w
  4992  022C  043B               	iorwf	(printf@width),w
  4993  022D  1903               	skipnz
  4994  022E  2A30               	goto	u3251
  4995  022F  2A31               	goto	u3250
  4996  0230                     u3251:
  4997  0230  2A3B               	goto	l238
  4998  0231                     u3250:
  4999                           opt subtitle "HI-TECH Software Omniscient Code Generator (Lite mode) build 49521"
  5000  0231                     l1903:	
  5001  0231  0835               	movf	(printf@flag),w
  5002  0232  3903               	andlw	03h
  5003  0233  1903               	btfsc	status,2
  5004  0234  2A36               	goto	u3261
  5005  0235  2A37               	goto	u3260
  5006  0236                     u3261:
  5007  0236  2A3B               	goto	l238
  5008  0237                     u3260:
  5009                           opt subtitle "HI-TECH Software Omniscient Code Generator (Lite mode) build 49521"
  5010                           
  5011  0237                     l1905:	
  5012                           opt subtitle "HI-TECH Software Omniscient Code Generator (Lite mode) build 49521"
  5013  0237  30FF               	movlw	low(-1)
  5014  0238  07BB               	addwf	(printf@width),f
  5015  0239  30FF               	movlw	high(-1)
  5016  023A  3DBC               	addwfc	(printf@width+1),f
  5017                           opt subtitle "HI-TECH Software Omniscient Code Generator (Lite mode) build 49521"
  5018  023B                     l238:	
  5019                           opt subtitle "HI-TECH Software Omniscient Code Generator (Lite mode) build 49521"
  5020                           
  5021  023B  083D               	movf	(printf@c),w
  5022  023C  00B0               	movwf	(??_printf+0)+0
  5023  023D  01B1               	clrf	(??_printf+0)+0+1
  5024  023E  1BB0               	btfsc	(??_printf+0)+0,7
  5025  023F  03B1               	decf	(??_printf+0)+0+1,f
  5026  0240  0831               	movf	1+(??_printf+0)+0,w
  5027  0241  3A80               	xorlw	80h
  5028  0242  00B2               	movwf	(??_printf+2)+0
  5029  0243  083C               	movf	(printf@width+1),w
  5030  0244  3A80               	xorlw	80h
  5031  0245  0232               	subwf	(??_printf+2)+0,w
  5032  0246  1D03               	skipz
  5033  0247  2A4A               	goto	u3275
  5034  0248  083B               	movf	(printf@width),w
  5035  0249  0230               	subwf	0+(??_printf+0)+0,w
  5036  024A                     u3275:
  5037                           opt subtitle "HI-TECH Software Omniscient Code Generator (Lite mode) build 49521"
  5038  024A  1803               	skipnc
  5039  024B  2A4D               	goto	u3271
  5040  024C  2A4E               	goto	u3270
  5041  024D                     u3271:
  5042  024D  2A59               	goto	l1909
  5043  024E                     u3270:
  5044                           opt subtitle "HI-TECH Software Omniscient Code Generator (Lite mode) build 49521"
  5045                           
  5046  024E                     l1907:	
  5047                           opt subtitle "HI-TECH Software Omniscient Code Generator (Lite mode) build 49521"
  5048  024E  0020               	movlb 0	; select bank0
  5049  024F  083D               	movf	(printf@c),w
  5050  0250  00B0               	movwf	(??_printf+0)+0
  5051  0251  01B1               	clrf	(??_printf+0)+0+1
  5052  0252  1BB0               	btfsc	(??_printf+0)+0,7
  5053  0253  03B1               	decf	(??_printf+0)+0+1,f
  5054  0254  0830               	movf	0+(??_printf+0)+0,w
  5055  0255  02BB               	subwf	(printf@width),f
  5056  0256  0831               	movf	1+(??_printf+0)+0,w
  5057  0257  3BBC               	subwfb	(printf@width+1),f
  5058  0258  2A5D               	goto	l1911
  5059                           opt subtitle "HI-TECH Software Omniscient Code Generator (Lite mode) build 49521"
  5060                           
  5061  0259                     l239:	
  5062                           opt subtitle "HI-TECH Software Omniscient Code Generator (Lite mode) build 49521"
  5063                           
  5064  0259                     l1909:	
  5065                           opt subtitle "HI-TECH Software Omniscient Code Generator (Lite mode) build 49521"
  5066                           
  5067  0259  0020               	movlb 0	; select bank0
  5068  025A  01BB               	clrf	(printf@width)
  5069  025B  01BC               	clrf	(printf@width+1)
  5070  025C  2A5D               	goto	l1911
  5071                           opt subtitle "HI-TECH Software Omniscient Code Generator (Lite mode) build 49521"
  5072  025D                     l240:	
  5073                           opt subtitle "HI-TECH Software Omniscient Code Generator (Lite mode) build 49521"
  5074                           
  5075  025D                     l1911:	
  5076                           opt subtitle "HI-TECH Software Omniscient Code Generator (Lite mode) build 49521"
  5077                           
  5078                           opt pagewidth 120
  5079  025D  083C               	movf	(printf@width+1),w
  5080  025E  043B               	iorwf	(printf@width),w
  5081  025F  1903               	skipnz
  5082  0260  2A62               	goto	u3281
  5083  0261  2A63               	goto	u3280
  5084  0262                     u3281:
  5085  0262  2A75               	goto	l1917
  5086  0263                     u3280:
  5087  0263  2A64               	goto	l1913
  5088                           opt subtitle "HI-TECH Software Omniscient Code Generator (Lite mode) build 49521"
  5089                           
  5090                           opt pagewidth 120
  5091  0264                     l242:	
  5092                           opt subtitle "HI-TECH Software Omniscient Code Generator (Lite mode) build 49521"
  5093                           
  5094  0264                     l1913:	
  5095                           opt subtitle "HI-TECH Software Omniscient Code Generator (Lite mode) build 49521"
  5096  0264  3020               	movlw	(020h)
  5097  0265  3187  2757  3181   	fcall	_putch
  5098                           opt subtitle "HI-TECH Software Omniscient Code Generator (Lite mode) build 49521"
  5099                           
  5100  0268                     l1915:	
  5101                           opt subtitle "HI-TECH Software Omniscient Code Generator (Lite mode) build 49521"
  5102  0268  30FF               	movlw	low(-1)
  5103  0269  0020               	movlb 0	; select bank0
  5104  026A  07BB               	addwf	(printf@width),f
  5105  026B  30FF               	movlw	high(-1)
  5106  026C  3DBC               	addwfc	(printf@width+1),f
  5107  026D  083C               	movf	(((printf@width+1))),w
  5108  026E  043B               	iorwf	(((printf@width))),w
  5109  026F  1D03               	skipz
  5110  0270  2A72               	goto	u3291
  5111  0271  2A73               	goto	u3290
  5112  0272                     u3291:
  5113  0272  2A64               	goto	l1913
  5114  0273                     u3290:
  5115  0273  2A75               	goto	l1917
  5116                           opt subtitle "HI-TECH Software Omniscient Code Generator (Lite mode) build 49521"
  5117  0274                     l243:	
  5118  0274  2A75               	goto	l1917
  5119                           opt subtitle "HI-TECH Software Omniscient Code Generator (Lite mode) build 49521"
  5120  0275                     l241:	
  5121                           opt subtitle "HI-TECH Software Omniscient Code Generator (Lite mode) build 49521"
  5122                           
  5123  0275                     l1917:	
  5124                           opt subtitle "HI-TECH Software Omniscient Code Generator (Lite mode) build 49521"
  5125  0275  0835               	movf	(printf@flag),w
  5126  0276  3903               	andlw	03h
  5127  0277  1903               	btfsc	status,2
  5128  0278  2A7A               	goto	u3301
  5129  0279  2A7B               	goto	u3300
  5130  027A                     u3301:
  5131  027A  2A80               	goto	l1921
  5132  027B                     u3300:
  5133                           opt subtitle "HI-TECH Software Omniscient Code Generator (Lite mode) build 49521"
  5134                           
  5135  027B                     l1919:	
  5136                           opt subtitle "HI-TECH Software Omniscient Code Generator (Lite mode) build 49521"
  5137  027B  302D               	movlw	(02Dh)
  5138  027C  3187  2757  3181   	fcall	_putch
  5139  027F  2A80               	goto	l1921
  5140                           opt subtitle "HI-TECH Software Omniscient Code Generator (Lite mode) build 49521"
  5141  0280                     l244:	
  5142                           opt subtitle "HI-TECH Software Omniscient Code Generator (Lite mode) build 49521"
  5143                           
  5144  0280                     l1921:	
  5145                           opt subtitle "HI-TECH Software Omniscient Code Generator (Lite mode) build 49521"
  5146                           
  5147  0280  0020               	movlb 0	; select bank0
  5148  0281  083D               	movf	(printf@c),w
  5149  0282  00B0               	movwf	(??_printf+0)+0
  5150  0283  0830               	movf	(??_printf+0)+0,w
  5151  0284  00B4               	movwf	(printf@prec)
  5152                           opt subtitle "HI-TECH Software Omniscient Code Generator (Lite mode) build 49521"
  5153                           
  5154  0285  2AB5               	goto	l1927
  5155                           opt subtitle "HI-TECH Software Omniscient Code Generator (Lite mode) build 49521"
  5156  0286                     l246:	
  5157                           opt subtitle "HI-TECH Software Omniscient Code Generator (Lite mode) build 49521"
  5158                           
  5159  0286                     l1923:	
  5160                           opt subtitle "HI-TECH Software Omniscient Code Generator (Lite mode) build 49521"
  5161                           
  5162  0286  300A               	movlw	low(0Ah)
  5163  0287  00A0               	movwf	(?___lwmod)
  5164  0288  3000               	movlw	high(0Ah)
  5165  0289  00A1               	movwf	((?___lwmod))+1
  5166  028A  3062               	movlw	low(_dpowers|8000h)
  5167  028B  0084               	movwf	fsr0l
  5168  028C  3085               	movlw	high(_dpowers|8000h)
  5169  028D  0085               	movwf	fsr0h
  5170  028E  0834               	movf	(printf@prec),w
  5171  028F  0709               	addwf	wreg,w
  5172  0290  0784               	addwf	fsr0l,f
  5173  0291  1803               	skipnc
  5174  0292  0A85               	incf	fsr0h,f
  5175  0293  3F00               	moviw	[0]fsr0
  5176  0294  00F1               	movwf	(?___lwdiv)
  5177  0295  3F01               	moviw	[1]fsr0
  5178  0296  00F2               	movwf	(?___lwdiv+1)
  5179  0297  0837               	movf	(printf@_val+1),w
  5180  0298  01F4               	clrf	1+(?___lwdiv)+02h
  5181  0299  07F4               	addwf	1+(?___lwdiv)+02h
  5182  029A  0836               	movf	(printf@_val),w
  5183  029B  01F3               	clrf	0+(?___lwdiv)+02h
  5184  029C  07F3               	addwf	0+(?___lwdiv)+02h
  5185                           opt subtitle "HI-TECH Software Omniscient Code Generator (Lite mode) build 49521"
  5186  029D  3186  2626  3181   	fcall	___lwdiv
  5187  02A0  0872               	movf	(1+(?___lwdiv)),w
  5188  02A1  0020               	movlb 0	; select bank0
  5189  02A2  01A3               	clrf	1+(?___lwmod)+02h
  5190  02A3  07A3               	addwf	1+(?___lwmod)+02h
  5191  02A4  0871               	movf	(0+(?___lwdiv)),w
  5192  02A5  01A2               	clrf	0+(?___lwmod)+02h
  5193  02A6  07A2               	addwf	0+(?___lwmod)+02h
  5194                           opt subtitle "HI-TECH Software Omniscient Code Generator (Lite mode) build 49521"
  5195  02A7  3186  266B  3181   	fcall	___lwmod
  5196  02AA  0020               	movlb 0	; select bank0
  5197  02AB  0820               	movf	(0+(?___lwmod)),w
  5198  02AC  3E30               	addlw	030h
  5199  02AD  00B0               	movwf	(??_printf+0)+0
  5200  02AE  0830               	movf	(??_printf+0)+0,w
  5201  02AF  00BD               	movwf	(printf@c)
  5202                           opt subtitle "HI-TECH Software Omniscient Code Generator (Lite mode) build 49521"
  5203                           
  5204  02B0                     l1925:	
  5205                           opt subtitle "HI-TECH Software Omniscient Code Generator (Lite mode) build 49521"
  5206                           
  5207  02B0  083D               	movf	(printf@c),w
  5208  02B1  3187  2757  3181   	fcall	_putch
  5209  02B4  2AB5               	goto	l1927
  5210                           opt subtitle "HI-TECH Software Omniscient Code Generator (Lite mode) build 49521"
  5211                           
  5212  02B5                     l245:	
  5213                           opt subtitle "HI-TECH Software Omniscient Code Generator (Lite mode) build 49521"
  5214                           
  5215  02B5                     l1927:	
  5216  02B5  30FF               	movlw	(-1)
  5217  02B6  0020               	movlb 0	; select bank0
  5218  02B7  00B0               	movwf	(??_printf+0)+0
  5219  02B8  0830               	movf	(??_printf+0)+0,w
  5220  02B9  07B4               	addwf	(printf@prec),f
  5221  02BA  0834               	movf	((printf@prec)),w
  5222  02BB  3AFF               	xorlw	-1&0ffh
  5223  02BC  1D03               	skipz
  5224  02BD  2ABF               	goto	u3311
  5225  02BE  2AC0               	goto	u3310
  5226  02BF                     u3311:
  5227  02BF  2A86               	goto	l1923
  5228  02C0                     u3310:
  5229  02C0  2AC2               	goto	l1929
  5230                           opt subtitle "HI-TECH Software Omniscient Code Generator (Lite mode) build 49521"
  5231  02C1                     l247:	
  5232  02C1  2AC2               	goto	l1929
  5233                           opt subtitle "HI-TECH Software Omniscient Code Generator (Lite mode) build 49521"
  5234                           
  5235  02C2                     l221:	
  5236                           opt subtitle "HI-TECH Software Omniscient Code Generator (Lite mode) build 49521"
  5237                           
  5238  02C2                     l1929:	
  5239  02C2  3001               	movlw	01h
  5240  02C3  0020               	movlb 0	; select bank0
  5241  02C4  07BA               	addwf	(printf@f),f
  5242  02C5  30FF               	movlw	-01h
  5243  02C6  073A               	addwf	(printf@f),w
  5244  02C7  3185               	movlp	high __stringtab
  5245  02C8  000A               	callw
  5246  02C9  3182               	pagesel	$ ;select current page
  5247  02CA  00B0               	movwf	(??_printf+0)+0
  5248  02CB  0830               	movf	(??_printf+0)+0,w
  5249  02CC  00BD               	movwf	(printf@c)
  5250  02CD  08BD               	movf	((printf@c)),f
  5251  02CE  1D03               	skipz
  5252  02CF  2AD1               	goto	u3321
  5253  02D0  2AD2               	goto	u3320
  5254  02D1                     u3321:
  5255  02D1  2978               	goto	l1855
  5256  02D2                     u3320:
  5257  02D2  2AD4               	goto	l249
  5258                           opt subtitle "HI-TECH Software Omniscient Code Generator (Lite mode) build 49521"
  5259  02D3                     l248:	
  5260  02D3  2AD4               	goto	l249
  5261                           opt subtitle "HI-TECH Software Omniscient Code Generator (Lite mode) build 49521"
  5262                           
  5263                           opt pagewidth 120
  5264                           
  5265                           	opt lm
  5266  02D4                     l229:	
  5267                           opt subtitle "HI-TECH Software Omniscient Code Generator (Lite mode) build 49521"
  5268                           
  5269                           opt pagewidth 120
  5270                           
  5271  02D4                     l249:	
  5272  02D4  0008               	return
  5273                           opt subtitle "HI-TECH Software Omniscient Code Generator (Lite mode) build 49521"
  5274                           
  5275  02D5                     	__end_of_printf:
  5276                           opt subtitle "HI-TECH Software Omniscient Code Generator (Lite mode) build 49521"
  5277                           
  5278                           opt pagewidth 120
  5279                           
  5280                           	opt lm
  5281                           
  5282                           	processor	16F1937
  5283                           clrc	macro
  5284                           	bcf	3,0
  5285                           	endm
  5286                           clrz	macro
  5287                           	bcf	3,2
  5288                           	endm
  5289                           setc	macro
  5290                           	bsf	3,0
  5291                           	endm
  5292                           setz	macro
  5293                           	bsf	3,2
  5294                           	endm
  5295                           skipc	macro
  5296                           	btfss	3,0
  5297                           	endm
  5298                           skipz	macro
  5299                           	btfss	3,2
  5300                           	endm
  5301                           skipnc	macro
  5302                           	btfsc	3,0
  5303                           	endm
  5304                           skipnz	macro
  5305                           	btfsc	3,2
  5306                           	endm
  5307                           indf	equ	0
  5308                           indf0	equ	0
  5309                           indf1	equ	1
  5310                           pc	equ	2
  5311  0757                     __ptext447:	;psect for function _putch
  5312                           opt subtitle "HI-TECH Software Omniscient Code Generator (Lite mode) build 49521"
  5313                           
  5314                           opt pagewidth 120
  5315                           
  5316  000C                     	__size_of_putch	equ	__end_of_putch-_putch
  5317                           opt subtitle "HI-TECH Software Omniscient Code Generator (Lite mode) build 49521"
  5318  0757                     _putch:	
  5319                           opt subtitle "HI-TECH Software Omniscient Code Generator (Lite mode) build 49521"
  5320                           
  5321                           opt pagewidth 120
  5322  0757  00F1               	movwf	(putch@byte)
  5323                           opt subtitle "HI-TECH Software Omniscient Code Generator (Lite mode) build 49521"
  5324                           
  5325  0758                     l1547:	
  5326                           opt subtitle "HI-TECH Software Omniscient Code Generator (Lite mode) build 49521"
  5327  0758  2F59               	goto	l196
  5328                           opt subtitle "HI-TECH Software Omniscient Code Generator (Lite mode) build 49521"
  5329  0759                     l197:	
  5330                           opt subtitle "HI-TECH Software Omniscient Code Generator (Lite mode) build 49521"
  5331                           
  5332                           opt pagewidth 120
  5333  0759                     l196:	
  5334                           opt subtitle "HI-TECH Software Omniscient Code Generator (Lite mode) build 49521"
  5335  0759  0020               	movlb 0	; select bank0
  5336  075A  1E11               	btfss	(140/8),(140)&7	;volatile
  5337  075B  2F5D               	goto	u2321
  5338  075C  2F5E               	goto	u2320
  5339  075D                     u2321:
  5340  075D  2F59               	goto	l196
  5341  075E                     u2320:
  5342  075E  2F5F               	goto	l1549
  5343                           opt subtitle "HI-TECH Software Omniscient Code Generator (Lite mode) build 49521"
  5344  075F                     l198:	
  5345                           opt subtitle "HI-TECH Software Omniscient Code Generator (Lite mode) build 49521"
  5346                           
  5347  075F                     l1549:	
  5348                           opt subtitle "HI-TECH Software Omniscient Code Generator (Lite mode) build 49521"
  5349  075F  0871               	movf	(putch@byte),w
  5350  0760  0023               	movlb 3	; select bank3
  5351  0761  009A               	movwf	(410)^0180h	;volatile
  5352                           opt subtitle "HI-TECH Software Omniscient Code Generator (Lite mode) build 49521"
  5353                           
  5354  0762                     l199:	
  5355  0762  0008               	return
  5356                           opt subtitle "HI-TECH Software Omniscient Code Generator (Lite mode) build 49521"
  5357                           
  5358  0763                     	__end_of_putch:
  5359                           opt subtitle "HI-TECH Software Omniscient Code Generator (Lite mode) build 49521"
  5360                           
  5361                           opt pagewidth 120
  5362                           
  5363                           	opt lm
  5364                           
  5365                           	processor	16F1937
  5366                           clrc	macro
  5367                           	bcf	3,0
  5368                           	endm
  5369                           clrz	macro
  5370                           	bcf	3,2
  5371                           	endm
  5372                           setc	macro
  5373                           	bsf	3,0
  5374                           	endm
  5375                           setz	macro
  5376                           	bsf	3,2
  5377                           	endm
  5378                           skipc	macro
  5379                           	btfss	3,0
  5380                           	endm
  5381                           skipz	macro
  5382                           	btfss	3,2
  5383                           	endm
  5384                           skipnc	macro
  5385                           	btfsc	3,0
  5386                           	endm
  5387                           skipnz	macro
  5388                           	btfsc	3,2
  5389                           	endm
  5390                           indf	equ	0
  5391                           indf0	equ	0
  5392                           indf1	equ	1
  5393  0729                     __ptext448:	;psect for function _isdigit
  5394                           opt subtitle "HI-TECH Software Omniscient Code Generator (Lite mode) build 49521"
  5395                           
  5396                           opt pagewidth 120
  5397                           
  5398  0014                     	__size_of_isdigit	equ	__end_of_isdigit-_isdigit
  5399                           opt subtitle "HI-TECH Software Omniscient Code Generator (Lite mode) build 49521"
  5400  0729                     _isdigit:	
  5401                           opt subtitle "HI-TECH Software Omniscient Code Generator (Lite mode) build 49521"
  5402                           
  5403                           opt pagewidth 120
  5404  0729  00F2               	movwf	(isdigit@c)
  5405                           opt subtitle "HI-TECH Software Omniscient Code Generator (Lite mode) build 49521"
  5406                           
  5407  072A                     l1555:	
  5408  072A  01F1               	clrf	(_isdigit$1104)
  5409                           opt subtitle "HI-TECH Software Omniscient Code Generator (Lite mode) build 49521"
  5410  072B                     l1557:	
  5411  072B  303A               	movlw	(03Ah)
  5412  072C  0272               	subwf	(isdigit@c),w
  5413  072D  1803               	skipnc
  5414  072E  2F30               	goto	u2331
  5415  072F  2F31               	goto	u2330
  5416  0730                     u2331:
  5417  0730  2F3A               	goto	l1563
  5418  0731                     u2330:
  5419                           opt subtitle "HI-TECH Software Omniscient Code Generator (Lite mode) build 49521"
  5420  0731                     l1559:	
  5421  0731  3030               	movlw	(030h)
  5422  0732  0272               	subwf	(isdigit@c),w
  5423  0733  1C03               	skipc
  5424  0734  2F36               	goto	u2341
  5425  0735  2F37               	goto	u2340
  5426  0736                     u2341:
  5427  0736  2F3A               	goto	l1563
  5428  0737                     u2340:
  5429                           opt subtitle "HI-TECH Software Omniscient Code Generator (Lite mode) build 49521"
  5430  0737                     l1561:	
  5431  0737  01F1               	clrf	(_isdigit$1104)
  5432  0738  0AF1               	incf	(_isdigit$1104),f
  5433  0739  2F3A               	goto	l1563
  5434                           opt subtitle "HI-TECH Software Omniscient Code Generator (Lite mode) build 49521"
  5435  073A                     l333:	
  5436                           opt subtitle "HI-TECH Software Omniscient Code Generator (Lite mode) build 49521"
  5437  073A                     l1563:	
  5438  073A  0C71               	rrf	(_isdigit$1104),w
  5439                           opt subtitle "HI-TECH Software Omniscient Code Generator (Lite mode) build 49521"
  5440  073B  2F3C               	goto	l334
  5441                           opt subtitle "HI-TECH Software Omniscient Code Generator (Lite mode) build 49521"
  5442  073C                     l1565:	
  5443                           opt subtitle "HI-TECH Software Omniscient Code Generator (Lite mode) build 49521"
  5444                           
  5445  073C                     l334:	
  5446  073C  0008               	return
  5447                           opt subtitle "HI-TECH Software Omniscient Code Generator (Lite mode) build 49521"
  5448                           
  5449  073D                     	__end_of_isdigit:
  5450                           opt subtitle "HI-TECH Software Omniscient Code Generator (Lite mode) build 49521"
  5451                           
  5452                           opt pagewidth 120
  5453                           
  5454                           	opt lm
  5455                           
  5456                           	processor	16F1937
  5457                           clrc	macro
  5458                           	bcf	3,0
  5459                           	endm
  5460                           clrz	macro
  5461                           	bcf	3,2
  5462                           	endm
  5463                           setc	macro
  5464                           	bsf	3,0
  5465                           	endm
  5466                           setz	macro
  5467                           	bsf	3,2
  5468                           	endm
  5469                           skipc	macro
  5470                           	btfss	3,0
  5471                           	endm
  5472                           skipz	macro
  5473                           	btfss	3,2
  5474                           	endm
  5475                           skipnc	macro
  5476                           	btfsc	3,0
  5477                           	endm
  5478                           skipnz	macro
  5479                           	btfsc	3,2
  5480                           	endm
  5481                           indf	equ	0
  5482                           indf0	equ	0
  5483                           indf1	equ	1
  5484                           pc	equ	2
  5485  06D3                     __ptext449:	;psect for function ___wmul
  5486                           opt subtitle "HI-TECH Software Omniscient Code Generator (Lite mode) build 49521"
  5487                           
  5488                           opt pagewidth 120
  5489                           
  5490  0024                     	__size_of___wmul	equ	__end_of___wmul-___wmul
  5491                           opt subtitle "HI-TECH Software Omniscient Code Generator (Lite mode) build 49521"
  5492  06D3                     ___wmul:	
  5493                           opt subtitle "HI-TECH Software Omniscient Code Generator (Lite mode) build 49521"
  5494                           
  5495                           opt pagewidth 120
  5496                           
  5497  06D3                     l1567:	
  5498  06D3  01F5               	clrf	(___wmul@product)
  5499  06D4  01F6               	clrf	(___wmul@product+1)
  5500  06D5  2ED6               	goto	l1569
  5501                           opt subtitle "HI-TECH Software Omniscient Code Generator (Lite mode) build 49521"
  5502                           
  5503  06D6                     l343:	
  5504                           opt subtitle "HI-TECH Software Omniscient Code Generator (Lite mode) build 49521"
  5505                           
  5506  06D6                     l1569:	
  5507  06D6  1C71               	btfss	(___wmul@multiplier),(0)&7
  5508  06D7  2ED9               	goto	u2351
  5509  06D8  2EDA               	goto	u2350
  5510  06D9                     u2351:
  5511  06D9  2EDE               	goto	l344
  5512  06DA                     u2350:
  5513                           opt subtitle "HI-TECH Software Omniscient Code Generator (Lite mode) build 49521"
  5514                           
  5515  06DA                     l1571:	
  5516  06DA  0873               	movf	(___wmul@multiplicand),w
  5517  06DB  07F5               	addwf	(___wmul@product),f
  5518  06DC  0874               	movf	(___wmul@multiplicand+1),w
  5519  06DD  3DF6               	addwfc	(___wmul@product+1),f
  5520                           opt subtitle "HI-TECH Software Omniscient Code Generator (Lite mode) build 49521"
  5521  06DE                     l344:	
  5522                           opt subtitle "HI-TECH Software Omniscient Code Generator (Lite mode) build 49521"
  5523  06DE  3001               	movlw	01h
  5524                           opt subtitle "HI-TECH Software Omniscient Code Generator (Lite mode) build 49521"
  5525  06DF                     u2365:
  5526  06DF  35F3               	lslf	(___wmul@multiplicand),f
  5527  06E0  0DF4               	rlf	(___wmul@multiplicand+1),f
  5528  06E1  0B89               	decfsz	wreg,f
  5529  06E2  2EDF               	goto	u2365
  5530                           opt subtitle "HI-TECH Software Omniscient Code Generator (Lite mode) build 49521"
  5531                           
  5532  06E3                     l1573:	
  5533  06E3  3001               	movlw	01h
  5534                           opt subtitle "HI-TECH Software Omniscient Code Generator (Lite mode) build 49521"
  5535  06E4                     u2375:
  5536  06E4  36F2               	lsrf	(___wmul@multiplier+1),f
  5537  06E5  0CF1               	rrf	(___wmul@multiplier),f
  5538  06E6  0B89               	decfsz	wreg,f
  5539  06E7  2EE4               	goto	u2375
  5540                           opt subtitle "HI-TECH Software Omniscient Code Generator (Lite mode) build 49521"
  5541  06E8  0872               	movf	((___wmul@multiplier+1)),w
  5542  06E9  0471               	iorwf	((___wmul@multiplier)),w
  5543  06EA  1D03               	skipz
  5544  06EB  2EED               	goto	u2381
  5545  06EC  2EEE               	goto	u2380
  5546  06ED                     u2381:
  5547  06ED  2ED6               	goto	l1569
  5548  06EE                     u2380:
  5549  06EE  2EEF               	goto	l1575
  5550                           opt subtitle "HI-TECH Software Omniscient Code Generator (Lite mode) build 49521"
  5551  06EF                     l345:	
  5552                           opt subtitle "HI-TECH Software Omniscient Code Generator (Lite mode) build 49521"
  5553                           
  5554  06EF                     l1575:	
  5555  06EF  0876               	movf	(___wmul@product+1),w
  5556  06F0  01F2               	clrf	(?___wmul+1)
  5557  06F1  07F2               	addwf	(?___wmul+1)
  5558  06F2  0875               	movf	(___wmul@product),w
  5559  06F3  01F1               	clrf	(?___wmul)
  5560  06F4  07F1               	addwf	(?___wmul)
  5561                           opt subtitle "HI-TECH Software Omniscient Code Generator (Lite mode) build 49521"
  5562  06F5  2EF6               	goto	l346
  5563                           opt subtitle "HI-TECH Software Omniscient Code Generator (Lite mode) build 49521"
  5564  06F6                     l1577:	
  5565                           opt subtitle "HI-TECH Software Omniscient Code Generator (Lite mode) build 49521"
  5566                           
  5567  06F6                     l346:	
  5568  06F6  0008               	return
  5569                           opt subtitle "HI-TECH Software Omniscient Code Generator (Lite mode) build 49521"
  5570                           
  5571  06F7                     	__end_of___wmul:
  5572                           opt subtitle "HI-TECH Software Omniscient Code Generator (Lite mode) build 49521"
  5573                           
  5574                           opt pagewidth 120
  5575                           
  5576                           	opt lm
  5577                           
  5578                           	processor	16F1937
  5579                           clrc	macro
  5580                           	bcf	3,0
  5581                           	endm
  5582                           clrz	macro
  5583                           	bcf	3,2
  5584                           	endm
  5585                           setc	macro
  5586                           	bsf	3,0
  5587                           	endm
  5588                           setz	macro
  5589                           	bsf	3,2
  5590                           	endm
  5591                           skipc	macro
  5592                           	btfss	3,0
  5593                           	endm
  5594                           skipz	macro
  5595                           	btfss	3,2
  5596                           	endm
  5597                           skipnc	macro
  5598                           	btfsc	3,0
  5599                           	endm
  5600                           skipnz	macro
  5601                           	btfsc	3,2
  5602                           	endm
  5603                           indf	equ	0
  5604                           indf0	equ	0
  5605                           indf1	equ	1
  5606                           pc	equ	2
  5607                           pcl	equ	2
  5608  0626                     __ptext450:	;psect for function ___lwdiv
  5609                           opt subtitle "HI-TECH Software Omniscient Code Generator (Lite mode) build 49521"
  5610                           
  5611                           opt pagewidth 120
  5612                           
  5613  0045                     	__size_of___lwdiv	equ	__end_of___lwdiv-___lwdiv
  5614                           opt subtitle "HI-TECH Software Omniscient Code Generator (Lite mode) build 49521"
  5615  0626                     ___lwdiv:	
  5616                           opt subtitle "HI-TECH Software Omniscient Code Generator (Lite mode) build 49521"
  5617                           
  5618                           opt pagewidth 120
  5619                           
  5620  0626                     l1579:	
  5621  0626  01F6               	clrf	(___lwdiv@quotient)
  5622  0627  01F7               	clrf	(___lwdiv@quotient+1)
  5623                           opt subtitle "HI-TECH Software Omniscient Code Generator (Lite mode) build 49521"
  5624                           
  5625  0628                     l1581:	
  5626  0628  0872               	movf	(___lwdiv@divisor+1),w
  5627  0629  0471               	iorwf	(___lwdiv@divisor),w
  5628  062A  1903               	skipnz
  5629  062B  2E2D               	goto	u2391
  5630  062C  2E2E               	goto	u2390
  5631  062D                     u2391:
  5632  062D  2E63               	goto	l1601
  5633  062E                     u2390:
  5634                           opt subtitle "HI-TECH Software Omniscient Code Generator (Lite mode) build 49521"
  5635                           
  5636  062E                     l1583:	
  5637  062E  01F8               	clrf	(___lwdiv@counter)
  5638  062F  0AF8               	incf	(___lwdiv@counter),f
  5639                           opt subtitle "HI-TECH Software Omniscient Code Generator (Lite mode) build 49521"
  5640  0630  2E3B               	goto	l1589
  5641                           opt subtitle "HI-TECH Software Omniscient Code Generator (Lite mode) build 49521"
  5642  0631                     l351:	
  5643                           opt subtitle "HI-TECH Software Omniscient Code Generator (Lite mode) build 49521"
  5644                           
  5645  0631                     l1585:	
  5646  0631  3001               	movlw	01h
  5647                           opt subtitle "HI-TECH Software Omniscient Code Generator (Lite mode) build 49521"
  5648  0632                     u2405:
  5649  0632  35F1               	lslf	(___lwdiv@divisor),f
  5650  0633  0DF2               	rlf	(___lwdiv@divisor+1),f
  5651  0634  0B89               	decfsz	wreg,f
  5652  0635  2E32               	goto	u2405
  5653                           opt subtitle "HI-TECH Software Omniscient Code Generator (Lite mode) build 49521"
  5654                           
  5655  0636                     l1587:	
  5656  0636  3001               	movlw	(01h)
  5657  0637  00F5               	movwf	(??___lwdiv+0)+0
  5658  0638  0875               	movf	(??___lwdiv+0)+0,w
  5659  0639  07F8               	addwf	(___lwdiv@counter),f
  5660  063A  2E3B               	goto	l1589
  5661                           opt subtitle "HI-TECH Software Omniscient Code Generator (Lite mode) build 49521"
  5662                           
  5663  063B                     l350:	
  5664                           opt subtitle "HI-TECH Software Omniscient Code Generator (Lite mode) build 49521"
  5665                           
  5666  063B                     l1589:	
  5667  063B  1FF2               	btfss	(___lwdiv@divisor+1),(15)&7
  5668  063C  2E3E               	goto	u2411
  5669  063D  2E3F               	goto	u2410
  5670  063E                     u2411:
  5671  063E  2E31               	goto	l1585
  5672  063F                     u2410:
  5673  063F  2E41               	goto	l1591
  5674                           opt subtitle "HI-TECH Software Omniscient Code Generator (Lite mode) build 49521"
  5675  0640                     l352:	
  5676  0640  2E41               	goto	l1591
  5677                           opt subtitle "HI-TECH Software Omniscient Code Generator (Lite mode) build 49521"
  5678                           
  5679  0641                     l353:	
  5680                           opt subtitle "HI-TECH Software Omniscient Code Generator (Lite mode) build 49521"
  5681                           
  5682  0641                     l1591:	
  5683  0641  3001               	movlw	01h
  5684                           opt subtitle "HI-TECH Software Omniscient Code Generator (Lite mode) build 49521"
  5685  0642                     u2425:
  5686  0642  35F6               	lslf	(___lwdiv@quotient),f
  5687  0643  0DF7               	rlf	(___lwdiv@quotient+1),f
  5688  0644  0B89               	decfsz	wreg,f
  5689  0645  2E42               	goto	u2425
  5690                           opt subtitle "HI-TECH Software Omniscient Code Generator (Lite mode) build 49521"
  5691  0646  0872               	movf	(___lwdiv@divisor+1),w
  5692  0647  0274               	subwf	(___lwdiv@dividend+1),w
  5693  0648  1D03               	skipz
  5694  0649  2E4C               	goto	u2435
  5695  064A  0871               	movf	(___lwdiv@divisor),w
  5696  064B  0273               	subwf	(___lwdiv@dividend),w
  5697  064C                     u2435:
  5698  064C  1C03               	skipc
  5699  064D  2E4F               	goto	u2431
  5700  064E  2E50               	goto	u2430
  5701  064F                     u2431:
  5702  064F  2E56               	goto	l1597
  5703  0650                     u2430:
  5704                           opt subtitle "HI-TECH Software Omniscient Code Generator (Lite mode) build 49521"
  5705                           
  5706  0650                     l1593:	
  5707  0650  0871               	movf	(___lwdiv@divisor),w
  5708  0651  02F3               	subwf	(___lwdiv@dividend),f
  5709  0652  0872               	movf	(___lwdiv@divisor+1),w
  5710  0653  3BF4               	subwfb	(___lwdiv@dividend+1),f
  5711                           opt subtitle "HI-TECH Software Omniscient Code Generator (Lite mode) build 49521"
  5712                           
  5713  0654                     l1595:	
  5714  0654  1476               	bsf	(___lwdiv@quotient)+(0/8),(0)&7
  5715  0655  2E56               	goto	l1597
  5716                           opt subtitle "HI-TECH Software Omniscient Code Generator (Lite mode) build 49521"
  5717                           
  5718  0656                     l354:	
  5719                           opt subtitle "HI-TECH Software Omniscient Code Generator (Lite mode) build 49521"
  5720                           
  5721  0656                     l1597:	
  5722  0656  3001               	movlw	01h
  5723                           opt subtitle "HI-TECH Software Omniscient Code Generator (Lite mode) build 49521"
  5724  0657                     u2445:
  5725  0657  36F2               	lsrf	(___lwdiv@divisor+1),f
  5726  0658  0CF1               	rrf	(___lwdiv@divisor),f
  5727  0659  0B89               	decfsz	wreg,f
  5728  065A  2E57               	goto	u2445
  5729                           opt subtitle "HI-TECH Software Omniscient Code Generator (Lite mode) build 49521"
  5730                           
  5731  065B                     l1599:	
  5732  065B  3001               	movlw	low(01h)
  5733  065C  02F8               	subwf	(___lwdiv@counter),f
  5734  065D  1D03               	btfss	status,2
  5735  065E  2E60               	goto	u2451
  5736  065F  2E61               	goto	u2450
  5737  0660                     u2451:
  5738  0660  2E41               	goto	l1591
  5739  0661                     u2450:
  5740  0661  2E63               	goto	l1601
  5741                           opt subtitle "HI-TECH Software Omniscient Code Generator (Lite mode) build 49521"
  5742  0662                     l355:	
  5743  0662  2E63               	goto	l1601
  5744                           opt subtitle "HI-TECH Software Omniscient Code Generator (Lite mode) build 49521"
  5745                           
  5746  0663                     l349:	
  5747                           opt subtitle "HI-TECH Software Omniscient Code Generator (Lite mode) build 49521"
  5748                           
  5749  0663                     l1601:	
  5750  0663  0877               	movf	(___lwdiv@quotient+1),w
  5751  0664  01F2               	clrf	(?___lwdiv+1)
  5752  0665  07F2               	addwf	(?___lwdiv+1)
  5753  0666  0876               	movf	(___lwdiv@quotient),w
  5754  0667  01F1               	clrf	(?___lwdiv)
  5755  0668  07F1               	addwf	(?___lwdiv)
  5756                           opt subtitle "HI-TECH Software Omniscient Code Generator (Lite mode) build 49521"
  5757  0669  2E6A               	goto	l356
  5758                           opt subtitle "HI-TECH Software Omniscient Code Generator (Lite mode) build 49521"
  5759  066A                     l1603:	
  5760                           opt subtitle "HI-TECH Software Omniscient Code Generator (Lite mode) build 49521"
  5761                           
  5762  066A                     l356:	
  5763  066A  0008               	return
  5764                           opt subtitle "HI-TECH Software Omniscient Code Generator (Lite mode) build 49521"
  5765                           
  5766  066B                     	__end_of___lwdiv:
  5767                           opt subtitle "HI-TECH Software Omniscient Code Generator (Lite mode) build 49521"
  5768                           
  5769                           opt pagewidth 120
  5770                           
  5771                           	opt lm
  5772                           
  5773                           	processor	16F1937
  5774                           clrc	macro
  5775                           	bcf	3,0
  5776                           	endm
  5777                           clrz	macro
  5778                           	bcf	3,2
  5779                           	endm
  5780                           setc	macro
  5781                           	bsf	3,0
  5782                           	endm
  5783                           setz	macro
  5784                           	bsf	3,2
  5785                           	endm
  5786                           skipc	macro
  5787                           	btfss	3,0
  5788                           	endm
  5789                           skipz	macro
  5790                           	btfss	3,2
  5791                           	endm
  5792                           skipnc	macro
  5793                           	btfsc	3,0
  5794                           	endm
  5795                           skipnz	macro
  5796                           	btfsc	3,2
  5797                           	endm
  5798                           indf	equ	0
  5799                           indf0	equ	0
  5800                           indf1	equ	1
  5801                           pc	equ	2
  5802  066B                     __ptext451:	;psect for function ___lwmod
  5803                           opt subtitle "HI-TECH Software Omniscient Code Generator (Lite mode) build 49521"
  5804                           
  5805                           opt pagewidth 120
  5806                           
  5807  003E                     	__size_of___lwmod	equ	__end_of___lwmod-___lwmod
  5808                           opt subtitle "HI-TECH Software Omniscient Code Generator (Lite mode) build 49521"
  5809  066B                     ___lwmod:	
  5810                           opt subtitle "HI-TECH Software Omniscient Code Generator (Lite mode) build 49521"
  5811                           
  5812                           opt pagewidth 120
  5813                           
  5814  066B                     l1931:	
  5815  066B  0020               	movlb 0	; select bank0
  5816  066C  0821               	movf	(___lwmod@divisor+1),w
  5817  066D  0420               	iorwf	(___lwmod@divisor),w
  5818  066E  1903               	skipnz
  5819  066F  2E71               	goto	u3331
  5820  0670  2E72               	goto	u3330
  5821  0671                     u3331:
  5822  0671  2EA1               	goto	l1949
  5823  0672                     u3330:
  5824                           opt subtitle "HI-TECH Software Omniscient Code Generator (Lite mode) build 49521"
  5825                           
  5826  0672                     l1933:	
  5827  0672  01FA               	clrf	(___lwmod@counter)
  5828  0673  0AFA               	incf	(___lwmod@counter),f
  5829                           opt subtitle "HI-TECH Software Omniscient Code Generator (Lite mode) build 49521"
  5830  0674  2E7F               	goto	l1939
  5831                           opt subtitle "HI-TECH Software Omniscient Code Generator (Lite mode) build 49521"
  5832  0675                     l361:	
  5833                           opt subtitle "HI-TECH Software Omniscient Code Generator (Lite mode) build 49521"
  5834                           
  5835  0675                     l1935:	
  5836  0675  3001               	movlw	01h
  5837                           opt subtitle "HI-TECH Software Omniscient Code Generator (Lite mode) build 49521"
  5838  0676                     u3345:
  5839  0676  35A0               	lslf	(___lwmod@divisor),f
  5840  0677  0DA1               	rlf	(___lwmod@divisor+1),f
  5841  0678  0B89               	decfsz	wreg,f
  5842  0679  2E76               	goto	u3345
  5843                           opt subtitle "HI-TECH Software Omniscient Code Generator (Lite mode) build 49521"
  5844                           
  5845  067A                     l1937:	
  5846  067A  3001               	movlw	(01h)
  5847  067B  00F9               	movwf	(??___lwmod+0)+0
  5848  067C  0879               	movf	(??___lwmod+0)+0,w
  5849  067D  07FA               	addwf	(___lwmod@counter),f
  5850  067E  2E7F               	goto	l1939
  5851                           opt subtitle "HI-TECH Software Omniscient Code Generator (Lite mode) build 49521"
  5852                           
  5853  067F                     l360:	
  5854                           opt subtitle "HI-TECH Software Omniscient Code Generator (Lite mode) build 49521"
  5855                           
  5856  067F                     l1939:	
  5857  067F  1FA1               	btfss	(___lwmod@divisor+1),(15)&7
  5858  0680  2E82               	goto	u3351
  5859  0681  2E83               	goto	u3350
  5860  0682                     u3351:
  5861  0682  2E75               	goto	l1935
  5862  0683                     u3350:
  5863  0683  2E85               	goto	l1941
  5864                           opt subtitle "HI-TECH Software Omniscient Code Generator (Lite mode) build 49521"
  5865  0684                     l362:	
  5866  0684  2E85               	goto	l1941
  5867                           opt subtitle "HI-TECH Software Omniscient Code Generator (Lite mode) build 49521"
  5868                           
  5869  0685                     l363:	
  5870                           opt subtitle "HI-TECH Software Omniscient Code Generator (Lite mode) build 49521"
  5871                           
  5872  0685                     l1941:	
  5873  0685  0821               	movf	(___lwmod@divisor+1),w
  5874  0686  0223               	subwf	(___lwmod@dividend+1),w
  5875  0687  1D03               	skipz
  5876  0688  2E8B               	goto	u3365
  5877  0689  0820               	movf	(___lwmod@divisor),w
  5878  068A  0222               	subwf	(___lwmod@dividend),w
  5879  068B                     u3365:
  5880  068B  1C03               	skipc
  5881  068C  2E8E               	goto	u3361
  5882  068D  2E8F               	goto	u3360
  5883  068E                     u3361:
  5884  068E  2E94               	goto	l1945
  5885  068F                     u3360:
  5886                           opt subtitle "HI-TECH Software Omniscient Code Generator (Lite mode) build 49521"
  5887                           
  5888  068F                     l1943:	
  5889  068F  0820               	movf	(___lwmod@divisor),w
  5890  0690  02A2               	subwf	(___lwmod@dividend),f
  5891  0691  0821               	movf	(___lwmod@divisor+1),w
  5892  0692  3BA3               	subwfb	(___lwmod@dividend+1),f
  5893  0693  2E94               	goto	l1945
  5894                           opt subtitle "HI-TECH Software Omniscient Code Generator (Lite mode) build 49521"
  5895  0694                     l364:	
  5896                           opt subtitle "HI-TECH Software Omniscient Code Generator (Lite mode) build 49521"
  5897                           
  5898  0694                     l1945:	
  5899  0694  3001               	movlw	01h
  5900                           opt subtitle "HI-TECH Software Omniscient Code Generator (Lite mode) build 49521"
  5901  0695                     u3375:
  5902  0695  36A1               	lsrf	(___lwmod@divisor+1),f
  5903  0696  0CA0               	rrf	(___lwmod@divisor),f
  5904  0697  0B89               	decfsz	wreg,f
  5905  0698  2E95               	goto	u3375
  5906                           opt subtitle "HI-TECH Software Omniscient Code Generator (Lite mode) build 49521"
  5907                           
  5908  0699                     l1947:	
  5909  0699  3001               	movlw	low(01h)
  5910  069A  02FA               	subwf	(___lwmod@counter),f
  5911  069B  1D03               	btfss	status,2
  5912  069C  2E9E               	goto	u3381
  5913  069D  2E9F               	goto	u3380
  5914  069E                     u3381:
  5915  069E  2E85               	goto	l1941
  5916  069F                     u3380:
  5917  069F  2EA1               	goto	l1949
  5918                           opt subtitle "HI-TECH Software Omniscient Code Generator (Lite mode) build 49521"
  5919  06A0                     l365:	
  5920  06A0  2EA1               	goto	l1949
  5921                           opt subtitle "HI-TECH Software Omniscient Code Generator (Lite mode) build 49521"
  5922                           
  5923  06A1                     l359:	
  5924                           opt subtitle "HI-TECH Software Omniscient Code Generator (Lite mode) build 49521"
  5925                           
  5926  06A1                     l1949:	
  5927  06A1  0823               	movf	(___lwmod@dividend+1),w
  5928  06A2  01A1               	clrf	(?___lwmod+1)
  5929  06A3  07A1               	addwf	(?___lwmod+1)
  5930  06A4  0822               	movf	(___lwmod@dividend),w
  5931  06A5  01A0               	clrf	(?___lwmod)
  5932  06A6  07A0               	addwf	(?___lwmod)
  5933                           opt subtitle "HI-TECH Software Omniscient Code Generator (Lite mode) build 49521"
  5934  06A7  2EA8               	goto	l366
  5935                           opt subtitle "HI-TECH Software Omniscient Code Generator (Lite mode) build 49521"
  5936  06A8                     l1951:	
  5937                           opt subtitle "HI-TECH Software Omniscient Code Generator (Lite mode) build 49521"
  5938                           
  5939  06A8                     l366:	
  5940  06A8  0008               	return
  5941                           opt subtitle "HI-TECH Software Omniscient Code Generator (Lite mode) build 49521"
  5942                           
  5943  06A9                     	__end_of___lwmod:
  5944                           opt subtitle "HI-TECH Software Omniscient Code Generator (Lite mode) build 49521"
  5945                           
  5946                           opt pagewidth 120
  5947                           
  5948                           	opt lm
  5949                           
  5950                           	processor	16F1937
  5951                           clrc	macro
  5952                           	bcf	3,0
  5953                           	endm
  5954                           clrz	macro
  5955                           	bcf	3,2
  5956                           	endm
  5957                           setc	macro
  5958                           	bsf	3,0
  5959                           	endm
  5960                           setz	macro
  5961                           	bsf	3,2
  5962                           	endm
  5963                           skipc	macro
  5964                           	btfss	3,0
  5965                           	endm
  5966                           skipz	macro
  5967                           	btfss	3,2
  5968                           	endm
  5969                           skipnc	macro
  5970                           	btfsc	3,0
  5971                           	endm
  5972                           skipnz	macro
  5973                           	btfsc	3,2
  5974                           	endm
  5975                           indf	equ	0
  5976                           indf0	equ	0
  5977  0004                     __pintentry:
  5978                           opt subtitle "HI-TECH Software Omniscient Code Generator (Lite mode) build 49521"
  5979                           
  5980                           opt pagewidth 120
  5981                           
  5982  0007                     	__size_of_IRS	equ	__end_of_IRS-_IRS
  5983                           opt subtitle "HI-TECH Software Omniscient Code Generator (Lite mode) build 49521"
  5984  0004                     _IRS:	
  5985                           opt subtitle "HI-TECH Software Omniscient Code Generator (Lite mode) build 49521"
  5986                           
  5987                           opt pagewidth 120
  5988  0004  3180               	pagesel	$
  5989  0005  0020               	movlb 0	; select bank0
  5990  0006  087F               	movf	btemp+1,w
  5991  0007  00F0               	movwf	(??_IRS+0)
  5992                           opt subtitle "HI-TECH Software Omniscient Code Generator (Lite mode) build 49521"
  5993                           
  5994  0008                     i1l185:	
  5995  0008  0870               	movf	(??_IRS+0),w
  5996  0009  00FF               	movwf	btemp+1
  5997  000A  0009               	retfie
  5998                           opt subtitle "HI-TECH Software Omniscient Code Generator (Lite mode) build 49521"
  5999                           
  6000  000B                     	__end_of_IRS:
  6001                           opt subtitle "HI-TECH Software Omniscient Code Generator (Lite mode) build 49521"
  6002                           
  6003                           opt pagewidth 120
  6004  007E                     	btemp set 07Eh
  6005                           opt subtitle "HI-TECH Software Omniscient Code Generator (Lite mode) build 49521"
  6006                           
  6007                           opt pagewidth 120
  6008  007E                     	wtemp0 set btemp


Data Sizes:
    Strings     101
    Constant    10
    Data        13
    BSS         5
    Persistent  0
    Stack       0

Auto Spaces:
    Space          Size  Autos    Used
    COMMON           14     12      13
    BANK0            80     46      64
    BANK1            80      0       0
    BANK2            80      0       0
    BANK3            80      0       0
    BANK4            80      0       0
    BANK5            80      0       0
    BANK6            16      0       0

Pointer List with Targets:

    ?___lwdiv	unsigned int  size(1) Largest target is 0

    ?___lwmod	unsigned int  size(1) Largest target is 0

    ?___wmul	unsigned int  size(1) Largest target is 0

    ?_ReadADC	struct . size(1) Largest target is 0

    printf@f	PTR const unsigned char  size(1) Largest target is 61
		 -> STR_2(CODE[61]), STR_1(CODE[40]), 

    ?_printf	int  size(1) Largest target is 0

    printf@ap	PTR void [1] size(1) Largest target is 2
		 -> ?_printf(BANK0[2]), 

    S1036$_cp	PTR const unsigned char  size(1) Largest target is 0

    _val._str._cp	PTR const unsigned char  size(1) Largest target is 0


Critical Paths under _main in COMMON

    _main->_init_sumo
    _printf->___lwmod
    ___lwmod->___lwdiv

Critical Paths under _IRS in COMMON

    None.

Critical Paths under _main in BANK0

    _main->_get_sensors
    _init_sumo->_printf
    _get_sensors->_printf
    _printf->___lwmod

Critical Paths under _IRS in BANK0

    None.

Critical Paths under _main in BANK1

    None.

Critical Paths under _IRS in BANK1

    None.

Critical Paths under _main in BANK2

    None.

Critical Paths under _IRS in BANK2

    None.

Critical Paths under _main in BANK3

    None.

Critical Paths under _IRS in BANK3

    None.

Critical Paths under _main in BANK4

    None.

Critical Paths under _IRS in BANK4

    None.

Critical Paths under _main in BANK5

    None.

Critical Paths under _IRS in BANK5

    None.

Critical Paths under _main in BANK6

    None.

Critical Paths under _IRS in BANK6

    None.

Call Graph Tables:

 ---------------------------------------------------------------------------------
 (Depth) Function   	        Calls       Base Space   Used Autos Params    Refs
 ---------------------------------------------------------------------------------
 (0) _main                                                 1     1      0    4114
                                             45 BANK0      1     1      0
                          _init_sumo
                           _delay_ms
                            _delay_s
                        _get_sensors
                          _sumo_move
 ---------------------------------------------------------------------------------
 (1) _init_sumo                                            1     1      0    1504
                                             11 COMMON     1     1      0
                            _OpenADC
                             _printf
 ---------------------------------------------------------------------------------
 (2) _OpenADC                                              0     0      0       0
 ---------------------------------------------------------------------------------
 (1) _delay_ms                                             5     3      2      68
                                              1 COMMON     5     3      2
 ---------------------------------------------------------------------------------
 (1) _delay_s                                              6     4      2      68
                                              1 COMMON     6     4      2
 ---------------------------------------------------------------------------------
 (1) _get_sensors                                         17    17      0    2452
                                             30 BANK0     15    15      0
                            _ReadADC
                             _printf
 ---------------------------------------------------------------------------------
 (2) _ReadADC                                              6     4      2      70
                                              1 COMMON     6     4      2
 ---------------------------------------------------------------------------------
 (1) _sumo_move                                            1     1      0      22
                                              1 COMMON     1     1      0
 ---------------------------------------------------------------------------------
 (2) _printf                                              26    14     12    1504
                                              4 BANK0     26    14     12
                              _putch
                            _isdigit
                             ___wmul
                            ___lwdiv
                            ___lwmod
 ---------------------------------------------------------------------------------
 (3) _putch                                                1     1      0      22
                                              1 COMMON     1     1      0
 ---------------------------------------------------------------------------------
 (3) _isdigit                                              2     2      0      68
                                              1 COMMON     2     2      0
 ---------------------------------------------------------------------------------
 (3) ___wmul                                               6     2      4      92
                                              1 COMMON     6     2      4
 ---------------------------------------------------------------------------------
 (3) ___lwdiv                                              8     4      4     162
                                              1 COMMON     8     4      4
 ---------------------------------------------------------------------------------
 (3) ___lwmod                                              6     2      4     232
                                              9 COMMON     2     2      0
                                              0 BANK0      4     0      4
                            ___lwdiv (ARG)
 ---------------------------------------------------------------------------------
 Estimated maximum stack depth 3
 ---------------------------------------------------------------------------------
 (Depth) Function   	        Calls       Base Space   Used Autos Params    Refs
 ---------------------------------------------------------------------------------
 (4) _IRS                                                  1     1      0       0
                                              0 COMMON     1     1      0
 ---------------------------------------------------------------------------------
 Estimated maximum stack depth 4
 ---------------------------------------------------------------------------------

 Call Graph Graphs:

 _main (ROOT)
   _init_sumo
     _OpenADC
     _printf
       _putch
       _isdigit
       ___wmul
       ___lwdiv
       ___lwmod
         ___lwdiv (ARG)
   _delay_ms
   _delay_s
   _get_sensors
     _ReadADC
     _printf
       _putch
       _isdigit
       ___wmul
       ___lwdiv
       ___lwmod
         ___lwdiv (ARG)
   _sumo_move

 _IRS (ROOT)

 Address spaces:
Name               Size   Autos  Total    Cost      Usage
BIGRAM             1F0      0       0       0        0.0%
EEDATA             100      0       0       0        0.0%
NULL                 0      0       0       0        0.0%
CODE                 0      0       0       0        0.0%
BITCOMMON            E      0       1       1        7.1%
BITSFR0              0      0       0       1        0.0%
SFR0                 0      0       0       1        0.0%
COMMON               E      C       D       2       92.9%
BITSFR1              0      0       0       2        0.0%
SFR1                 0      0       0       2        0.0%
BITSFR2              0      0       0       3        0.0%
SFR2                 0      0       0       3        0.0%
STACK                0      0       3       3        0.0%
BITSFR3              0      0       0       4        0.0%
SFR3                 0      0       0       4        0.0%
ABS                  0      0      4D       4        0.0%
BITBANK0            50      0       0       5        0.0%
BITSFR4              0      0       0       5        0.0%
SFR4                 0      0       0       5        0.0%
BANK0               50     2E      40       6       80.0%
BITSFR5              0      0       0       6        0.0%
SFR5                 0      0       0       6        0.0%
BITBANK1            50      0       0       7        0.0%
BITSFR6              0      0       0       7        0.0%
SFR6                 0      0       0       7        0.0%
BANK1               50      0       0       8        0.0%
BITSFR7              0      0       0       8        0.0%
SFR7                 0      0       0       8        0.0%
BITBANK2            50      0       0       9        0.0%
BITSFR8              0      0       0       9        0.0%
SFR8                 0      0       0       9        0.0%
BANK2               50      0       0      10        0.0%
BITSFR9              0      0       0      10        0.0%
SFR9                 0      0       0      10        0.0%
BITBANK3            50      0       0      11        0.0%
BITSFR10             0      0       0      11        0.0%
SFR10                0      0       0      11        0.0%
BANK3               50      0       0      12        0.0%
BITSFR11             0      0       0      12        0.0%
SFR11                0      0       0      12        0.0%
BITBANK4            50      0       0      13        0.0%
BITSFR12             0      0       0      13        0.0%
SFR12                0      0       0      13        0.0%
BANK4               50      0       0      14        0.0%
BITSFR13             0      0       0      14        0.0%
SFR13                0      0       0      14        0.0%
BITBANK5            50      0       0      15        0.0%
BITSFR14             0      0       0      15        0.0%
SFR14                0      0       0      15        0.0%
BANK5               50      0       0      16        0.0%
BITSFR15             0      0       0      16        0.0%
SFR15                0      0       0      16        0.0%
BITBANK6            10      0       0      17        0.0%
BITSFR16             0      0       0      17        0.0%
SFR16                0      0       0      17        0.0%
BANK6               10      0       0      18        0.0%
BITSFR17             0      0       0      18        0.0%
SFR17                0      0       0      18        0.0%
BITSFR18             0      0       0      19        0.0%
SFR18                0      0       0      19        0.0%
DATA                 0      0      50      19        0.0%
BITSFR19             0      0       0      20        0.0%
SFR19                0      0       0      20        0.0%
BITSFR20             0      0       0      21        0.0%
SFR20                0      0       0      21        0.0%
BITSFR21             0      0       0      22        0.0%
SFR21                0      0       0      22        0.0%
BITSFR22             0      0       0      23        0.0%
SFR22                0      0       0      23        0.0%
BITSFR23             0      0       0      24        0.0%
SFR23                0      0       0      24        0.0%
BITSFR24             0      0       0      25        0.0%
SFR24                0      0       0      25        0.0%
BITSFR25             0      0       0      26        0.0%
SFR25                0      0       0      26        0.0%
BITSFR26             0      0       0      27        0.0%
SFR26                0      0       0      27        0.0%
BITSFR27             0      0       0      28        0.0%
SFR27                0      0       0      28        0.0%
BITSFR28             0      0       0      29        0.0%
SFR28                0      0       0      29        0.0%
BITSFR29             0      0       0      30        0.0%
SFR29                0      0       0      30        0.0%
BITSFR30             0      0       0      31        0.0%
SFR30                0      0       0      31        0.0%
BITSFR31             0      0       0      32        0.0%
SFR31                0      0       0      32        0.0%


Microchip Technology PIC Macro Assembler V1.12 build 49521 
Symbol Table                                                                                   Wed Jul 31 03:22:21 2013

              ?_get_sensors 0070                           _i 005F                 __CFG_CP$OFF 0000  
                        l13 0756                          l16 06BE                          l17 06BE  
                        l18 06C3                          l19 06D2         ___wmul@multiplicand 0073  
                       l100 0073                         l101 001E                         l110 009B  
                       l102 005A                         l111 0161                         l103 0074  
                       l120 010D                         l112 009F                         l104 0074  
                       l121 00FB                         l113 00B5                         l105 007A  
                       l130 0133                         l114 0110                         l106 0082  
                       l107 016E                         l131 0134                         l123 00EF  
                       l115 00C7                         l132 013E                         l116 010F  
                       l124 010C                         l108 009E                         l221 02C2  
                       l141 0463                         l133 0143                         l125 010B  
                       l117 00D9                         l230 01CC                         l222 0178  
                       l150 055F                         l142 04CD                         l126 016D  
                       l134 0144                         l118 010E                         l231 01CD  
                       l223 0183                         l151 04F0                         l143 04D8  
                       l135 015D                         l127 0116                         l119 00E6  
                       l240 025D                         l232 01E3                         l224 01CA  
                       l152 04FD                         l160 0304                         l144 04DB  
                       l136 015E                         l128 0128                         l241 0275  
                       l233 01CE                         l225 0196                         l153 050A  
                       l161 030D                         l137 016F                         l129 0135  
                       l242 0264                         l234 01FD                         l226 01C9  
                       l154 0517                         l170 039B                         l162 0322  
                       l138 016F                         l243 0274                         l235 0207  
                       l227 01D0                         l147 0560                         l155 0532  
                       l171 0426                         l163 032B                         l244 0280  
                       l236 022B                         l228 01CB                         l148 054E  
                       l156 0560                         l172 0427                         l164 0340  
                       l180 05DC                         l333 073A                         l229 02D4  
                       l245 02B5                         l237 0220                         l149 04E3  
                       l165 0349                         l181 0625                         l350 063B  
                       l334 073C                         l246 0286                         l238 023B  
                       l166 035E                         l182 0625                         l351 0631  
                       l343 06D6                         l247 02C1                         l239 0259  
                       l167 0367                         l159 02EF                         l175 0702  
                       l360 067F                         l352 0640                         l344 06DE  
                       l248 02D3                         l168 037C                         l176 0713  
                       l361 0675                         l353 0641                         l345 06EF  
                       l249 02D4                         l169 0385                         l177 0713  
                       l362 0684                         l354 0656                         l346 06F6  
                       l363 0685                         l355 0662                         l364 0694  
                       l356 066A                         l196 0759                         l365 06A0  
                       l349 0663                         l197 0759                         l366 06A8  
                       l198 075F                         l359 06A1                         l199 0762  
              __CFG_CPD$OFF 0000                         _IRS 0004                __CFG_BORV$LO 0000  
                       wreg 0009                __CFG_LVP$OFF 0000                        ?_IRS 0070  
                      l1201 0750                        l1211 06BB                        l1203 0755  
                      l1213 06C3                        l1205 06AA                        l1215 06CB  
                      l1207 06AC                        l1217 06D2                        l1209 06B7  
                      l1601 0663                        l1361 06FB                        l1603 066A  
                      l1371 05D5                        l1363 0701                        l1461 04DD  
                      l1373 05DB                        l1365 0702                        l1197 074A  
                      l1701 00EF                        l1463 04E2                        l1375 05E6  
                      l1367 070B                        l1359 06F7                        l1199 074C  
                      l1711 0116                        l1703 00F3                        l1561 0737  
                      l1465 054D                        l1801 0318                        l1377 060D  
                      l1369 05D1                        l1721 0139                        l1713 0124  
                      l1705 00FF                        l1641 001D                        l1633 000D  
                      l1571 06DA                        l1563 073A                        l1555 072A  
                      l1547 0758                        l1467 054E                        l1811 0336  
                      l1803 031C                        l1379 061D                        l1731 015E  
                      l1723 013E                        l1715 0128                        l1707 0103  
                      l1651 0047                        l1643 001E                        l1635 0010  
                      l1581 0628                        l1573 06E3                        l1565 073C  
                      l1557 072B                        l1549 075F                        l1901 022B  
                      l1821 0354                        l1813 033A                        l1805 0323  
                      l1741 0450                        l1725 0144                        l1717 012D  
                      l1709 0110                        l1733 0161                        l1661 0082  
                      l1653 0053                        l1645 002D                        l1637 0014  
                      l1591 0641                        l1583 062E                        l1575 06EF  
                      l1567 06D3                        l1559 0731                        l1911 025D  
                      l1903 0231                        l1831 0372                        l1823 0358  
                      l1815 0341                        l1807 032A                        l1751 045D  
                      l1743 0456                        l1735 0428                        l1727 0148  
                      l1719 0131                        l1671 0096                        l1663 0085  
                      l1647 0036                        l1655 005A                        l1639 0016  
                      l1593 0650                        l1585 0631                        l1577 06F6  
                      l1569 06D6                        l1921 0280                        l1913 0264  
                      l1905 0237                        l1841 0390                        l1833 0376  
                      l1825 035F                        l1817 0348                        l1809 032B  
                      l1761 04C1                        l1753 0462                        l1745 0457  
                      l1737 042D                        l1729 0157                        l1681 00B2  
                      l1673 009B                        l1665 0089                        l1657 0069  
                      l1649 003D                        l1931 066B                        l1595 0654  
                      l1587 0636                        l1579 0626                        l1923 0286  
                      l1915 0268                        l1907 024E                        l1851 0427  
                      l1843 0394                        l1835 037D                        l1827 0366  
                      l1819 0349                        l1771 04DB                        l1763 04C8  
                      l1755 04B7                        l1747 0459                        l1739 042E  
                      l1691 00CF                        l1683 00B9                        l1675 00A3  
                      l1667 008E                        l1659 007A                        l1941 0685  
                      l1933 0672                        l1597 0656                        l1589 063B  
                      l1925 02B0                        l1917 0275                        l1909 0259  
                      l1861 0186                        l1853 0173                        l1837 0384  
                      l1845 039B                        l1829 0367                        l1781 02E5  
                      l1773 02D5                        l1765 04CD                        l1757 04BA  
                      l1749 045B                        l1693 00D6                        l1685 00BD  
                      l1677 00A7                        l1669 0092                        l1951 06A8  
                      l1943 068F                        l1935 0675                        l1599 065B  
                      l1927 02B5                        l1919 027B                        l1871 01B9  
                      l1863 0187                        l1855 0178                        l1847 03F9  
                      l1839 0385                        l1791 02FA                        l1783 02E6  
                      l1775 02E2                        l1767 04D8                        l1759 04BE  
                      l1695 00DD                        l1687 00C4                        l1679 00AB  
                      l1945 0694                        l1937 067A                        l1881 01EB  
                      l1873 01BD                        l1865 0192                        l1857 017E  
                      l1929 02C2                        l1849 03FD                        l1793 02FE  
                      l1785 02E7                        l1777 02E3                        l1769 04D9  
                      l1697 00E1                        l1689 00CB                        l1947 0699  
                      l1939 067F                        l1891 0206                        l1883 01EF  
                      l1875 01CF                        l1867 0196                        l1859 0183  
                      l1795 0305                        l1787 02EE                        l1779 02E4  
                      l1699 00EA                        l1949 06A1                        l1893 0207  
                      l1885 01F3                        l1869 01AB                        l1877 01D0  
                      l1797 030C                        l1789 02EF                        l1895 021F  
                      l1887 01F7                        l1879 01E3                        l1799 030D  
                      l1897 0220                        l1889 01FD                        l1899 0224  
                      STR_1 05A9                        STR_2 056C                        u2000 04E1  
                      u2001 04E0                        u2010 04EB                        u2011 04E8  
                      u2100 0527                        u2101 0524                        u2110 052F  
                      u2030 04FA                        u2111 052C                        u2031 04F7  
                      u2104 0521                        u2024 04ED                        u3000 02ED  
                      u3001 02EC                        u2130 053A                        u2114 0529  
                      u2050 0505                        u3010 0304                        u2131 0537  
                      u2051 0502                        u3011 0303                        u2140 0542  
                      u2124 0531                        u2044 04FC                        u3100 0383  
                      u3020 030B                        u2141 053F                        u3101 0382  
                      u3021 030A                        u2150 054A                        u2070 0512  
                      u1270 06C2                        u3110 039A                        u3030 0322  
                      u2151 0547                        u2071 050F                        u1271 06C1  
                      u3111 0399                        u3031 0321                        _LATC 010E  
                      u2320 075E                        u3200 01C8                        u2144 053C  
                      u2064 0507                        u3040 0329                        u2321 075D  
                      u3201 01C7                        u3041 0328                        u2410 063F  
                      u2330 0731                        u3210 01F3                        u2154 0544  
                      u2090 051F                        u3050 0340                        u2411 063E  
                      u2331 0730                        u3211 01F2                        u2091 051C  
                      u3051 033F                        u2340 0737                        u3300 027B  
                      u3220 0205                        u2164 054C                        u2084 0514  
                      u3060 0347                        u2405 0632                        u2341 0736  
                      u3301 027A                        u3221 0204                        u3125 03A1  
                      u3061 0346                        u2430 0650                        u2350 06DA  
                      u3310 02C0                        u3230 021E                        u3070 035E  
                      u2431 064F                        u2351 06D9                        u3311 02BF  
                      u3231 021D                        u3135 03B0                        u3071 035D  
                      u3320 02D2                        u3240 022A                        u3080 0365  
                      u2520 0014                        u2425 0642                        u3321 02D1  
                      u3241 0229                        u3145 03C0                        u3081 0364  
                      u2521 0013                        u3330 0672                        u2450 0661  
                      u3250 0231                        u3170 03FD                        u3090 037C  
                      u1810 0624                        u2610 0079                        u2530 001C  
                      u3331 0671                        u2451 0660                        u2435 064C  
                      u3251 0230                        u3235 021A                        u3171 03FC  
                      u3155 03D1                        u3091 037B                        u1811 0623  
                      u2611 0078                        u2531 001B                        u2380 06EE  
                      u3260 0237                        u3180 017E                        u1804 05E6  
                      u2700 00CB                        u2620 0089                        u2604 0072  
                      u2540 0034                        u2445 0657                        u2381 06ED  
                      u2365 06DF                        u3261 0236                        u3181 017D  
                      u3165 03F1                        u2701 00CA                        u2621 0088  
                      u2541 0031                        u3350 0683                        u2390 062E  
                      u3270 024E                        u3190 0192                        u2710 00DD  
                      u2630 008E                        u3351 0682                        u2391 062D  
                      u2375 06E4                        u3271 024D                        u3191 0191  
                      u3407 05EC                        u2711 00DC                        u2631 008D  
                      u3360 068F                        u3280 0263                        u1760 0700  
                      u2800 0157                        u2720 00E1                        u2640 0092  
                      u2560 0045                        u3361 068E                        u3345 0676  
                      u3281 0262                        u3417 05F9                        u1761 06FF  
                      u2801 0156                        u2721 00E0                        u2641 0091  
                      u2561 0042                        u3290 0273                        u1770 0712  
                      u2810 0436                        u2730 00EA                        u2650 0096  
                      u2554 0036                        u3291 0272                        u3275 024A  
                      u3427 0606                        u1771 0711                        u2811 0433  
                      u2731 00E9                        u2651 0095                        u3380 069F  
                      u1780 05DA                        u2900 0483                        u2820 043E  
                      u2740 00EE                        u2660 009A                        u2580 0059  
                      u3381 069E                        u3365 068B                        u3437 0616  
                      u1781 05D9                        u2901 0480                        u2821 043B  
                      u2805 0153                        u2741 00ED                        u2661 0099  
                      u2581 0058                        u1790 05E4                        u2910 048B  
                      u2830 0446                        u2750 00FF                        u2670 00A3  
                      u2590 0070                        u2574 0047                        u3375 0695  
                      u3447 06B9                        u1791 05E1                        u2911 0488  
                      u2831 0443                        u2751 00FE                        u2671 00A2  
                      u2591 006D                        u2904 047D                        u2840 044E  
                      u2824 0438                        u2760 0124                        u2680 00A7  
                      u2841 044B                        u2761 0123                        u2681 00A6  
                      u2930 0495                        u2914 0485                        u2834 0440  
                      u2770 012D                        u2690 00B9                        u2931 0492  
                      u2771 012C                        u2691 00B8                        u2940 049D  
                      u2924 048D                        u2860 0462                        u2844 0448  
                      u2780 0131                        u3397 0706                        u2941 049A  
                      u2861 0461                        u2781 0130                        u2765 0120  
                      u2950 04A5                        u2870 046B                        u2854 0450  
                      u2790 0139                        u2951 04A2                        u2871 0468  
                      u2791 0138                        u2960 04AD                        u2944 0497  
                      u2880 0473                        u2961 04AA                        u2881 0470  
                      u2970 04B5                        u2954 049F                        u2890 047B  
                      u2971 04B2                        u2891 0478                        u2964 04A7  
                      u2884 046D                        _RCIF 008D                        u2990 04BE  
                      u2974 04AF                        u2894 0475                        u2991 04BD  
                      u2984 04B7                        _TXIF 008C     _mEdgeBackRightThreshold 0052  
              __CFG_WRT$OFF 0000                        _Sumo 005A                        _main 000D  
                      fsr0h 0005                        fsr1h 0007                        fsr0l 0004  
                      fsr1l 0006                        btemp 007E    _mEdgeFrontRightThreshold 0056  
                      start 000B               __CFG_IESO$OFF 0000              delay_s@seconds 0071  
             __CFG_MCLRE$ON 0000             __end_of_ReadADC 06D3                       ??_IRS 0070  
           __end_of_OpenADC 0757               ReadADC@result 0075                       ?_main 0070  
             __CFG_WDTE$OFF 0000             __end_of___lwdiv 066B                       i1l185 0008  
           __end_of___lwmod 06A9                       _RCREG 0199                       _RCSTA 019D  
                     _SPBRG 019B                       _TRISC 008E                       _TXREG 019A  
                     _TXSTA 019E         delay_ms@miliseconds 0071                get_sensors@i 004C  
           __end_of_delay_s 0626              __CFG_FCMEN$OFF 0000             __end_of_dpowers 056C  
           __end_of_isdigit 073D                       _putch 0757              __pbitbssCOMMON 03E0  
            __CFG_BOREN$OFF 0000                       status 0003                       wtemp0 007E  
           __initialization 0714                __end_of_main 0171              ReadADC@channel 0074  
                    ??_main 004D              __CFG_PLLEN$OFF 0000                      _ADRESH 009C  
                    _ADRESL 009B                      ?_putch 0070                      _TRISC6 0476  
                    _TRISC7 0477                   ??_ReadADC 0073            __end_of_delay_ms 0714  
                 ??_OpenADC 0071              __CFG_PWRTE$OFF 0000          sumo_move@direction 0071  
                    ___wmul 06D3                   ??___lwdiv 0075                   ??___lwmod 0079  
      __size_of_get_sensors 0153                   ??_delay_s 0073                      _printf 0171  
                 ??_isdigit 0071     __end_of__initialization 0726       get_sensors@mLeftRange 0048  
            __pcstackCOMMON 0070                __pidataBANK0 073D               __end_of_putch 0763  
                   ??_putch 0071                  __pbssBANK0 005B             __CFG_VCAPEN$OFF 0000  
        __size_of_init_sumo 00B4                  __pmaintext 000D                     ?___wmul 0071  
                __pintentry 0004                     ?_printf 0024                   ?_delay_ms 0071  
                __stringtab 0561          __size_of_sumo_move 0085                     _ReadADC 06A9  
                   _OpenADC 074A             __size_of___wmul 0024                     ___lwdiv 0626  
                   ___lwmod 066B             __CFG_STVREN$OFF 0000                     _delay_s 05D1  
                   _isDebug 03E0             __size_of_printf 0164                __size_of_IRS 0007  
                   _dpowers 0562                     _isdigit 0729           __end_of_init_sumo 04DC  
                ??_delay_ms 0073        end_of_initialization 0726                     init_ram 0763  
                   initloop 0764                     printf@c 003D                     printf@f 003A  
                 _PORTDbits 000F           __end_of_sumo_move 0561            __CFG_FOSC$INTOSC 0000  
                 _TRISAbits 008C                   _TRISCbits 008E                   _TRISDbits 008F  
                 _TRISEbits 0090                 printf@width 003B               ??_get_sensors 003E  
            __end_of___wmul 06F7  get_sensors@mFrontRightLine 0042            _mTargetThreshold 0058  
            __end_of_printf 02D5         start_initialization 0714                 __end_of_IRS 000B  
           _rangeDifference 005D      get_sensors@mRightRange 004A    get_sensors@mBackLeftLine 0044  
                  ??___wmul 0075                 __pdataBANK0 004E                    ??_printf 0030  
       __end_of_get_sensors 0428               __pcstackBANK0 0020         __end_of__stringdata 05D1  
              _isdigit$1104 0071           __size_of_delay_ms 001D                    ?_ReadADC 0071  
                  ?_OpenADC 0070            ___lwdiv@dividend 0073                   __ptext440 074A  
                 __ptext441 06F7                   __ptext450 0626                   __ptext442 05D1  
                 __ptext451 066B                   __ptext443 02D5                   __ptext444 06A9  
                 __ptext445 04DC                   __ptext446 0171                   __ptext447 0757  
                 __ptext439 0428                   __ptext448 0729                   __ptext449 06D3  
                  ?___lwdiv 0071                    ?___lwmod 0020                    ?_delay_s 0071  
                 __pstrings 0561                    ?_isdigit 0070                _rangeAverage 005B  
          ___lwdiv@quotient 0076                   _init_sumo 0428              __size_of_putch 000C  
            ___wmul@product 0075                    _LATCbits 010E                    _LATDbits 010F  
               _get_sensors 02D5                  _ADCON0bits 009D                  _ADCON1bits 009E  
               __stringdata 056C           ___wmul@multiplier 0071                  printf@_val 0036  
                printf@flag 0035                  printf@prec 0034                   _sumo_move 04DC  
              delay_ms@temp 0075                  ?_init_sumo 0070            __size_of_ReadADC 002A  
          __size_of_OpenADC 000D            _mAttackThreshold 004E   get_sensors@mBackRightLine 0046  
          __size_of___lwdiv 0045            __size_of___lwmod 003E          __end_of__stringtab 0562  
          __size_of_delay_s 0055                  _ANSELAbits 018C                  _ANSELDbits 018F  
                _ANSELEbits 0190            __size_of_isdigit 0014                    _delay_ms 06F7  
                ?_sumo_move 0070             ___lwdiv@divisor 0071             ___lwdiv@counter 0078  
             __size_of_main 0164                 delay_s@temp 0076                   putch@byte 0071  
                _INTCONbits 000B                    isdigit@c 0072                 ??_init_sumo 007B  
                  intlevel1 0000            ___lwmod@dividend 0022           __CFG_CLKOUTEN$OFF 0000  
                _OSCCONbits 0099                    printf@ap 0033             ___lwmod@divisor 0020  
 get_sensors@mFrontLeftLine 0040             ___lwmod@counter 007A                 ??_sumo_move 0071  
    _mEdgeBackLeftThreshold 0050     _mEdgeFrontLeftThreshold 0054  
